---
triple:          'arm64-apple-darwin'
binary-path:     '/Users/noahmoore/applegpu_runtime/target/debug/deps/libapplegpu_runtime.dylib'
relocations:
  - { offset: 0x1E, size: 0x8, addend: 0x0, symName: _PyInit_applegpu_runtime, symObjAddr: 0x0, symBinAddr: 0x888, symSize: 0x34 }
  - { offset: 0x42, size: 0x8, addend: 0x0, symName: __ZN16applegpu_runtime16applegpu_runtime9_PYO3_DEF17hc2888ad079ea9a65E, symObjAddr: 0x78, symBinAddr: 0x682E0, symSize: 0x0 }
  - { offset: 0x4F, size: 0x8, addend: 0x0, symName: _PyInit_applegpu_runtime, symObjAddr: 0x0, symBinAddr: 0x888, symSize: 0x34 }
  - { offset: 0x1E91, size: 0x8, addend: 0x0, symName: __ZN4pyo36marker6Python19assume_gil_acquired17hd28e3c7dbfdaa9f9E, symObjAddr: 0x0, symBinAddr: 0x8BC, symSize: 0x4 }
  - { offset: 0x1FD3, size: 0x8, addend: 0x0, symName: __ZN4pyo36marker6Python19assume_gil_acquired17hd28e3c7dbfdaa9f9E, symObjAddr: 0x0, symBinAddr: 0x8BC, symSize: 0x4 }
  - { offset: 0x2004, size: 0x8, addend: 0x0, symName: '__ZN50_$LT$T$u20$as$u20$core..convert..Into$LT$U$GT$$GT$4into17h4c1bc2098f30b236E', symObjAddr: 0x0, symBinAddr: 0x8C0, symSize: 0x24 }
  - { offset: 0x27BD, size: 0x8, addend: 0x0, symName: '__ZN50_$LT$T$u20$as$u20$core..convert..Into$LT$U$GT$$GT$4into17h4c1bc2098f30b236E', symObjAddr: 0x0, symBinAddr: 0x8C0, symSize: 0x24 }
  - { offset: 0x3799, size: 0x8, addend: 0x0, symName: __ZN4pyo35impl_5panic9PanicTrap3new17h51dde24ff7fb8c2eE, symObjAddr: 0x0, symBinAddr: 0x8E4, symSize: 0x18 }
  - { offset: 0x3828, size: 0x8, addend: 0x0, symName: __ZN4pyo35impl_5panic9PanicTrap3new17h51dde24ff7fb8c2eE, symObjAddr: 0x0, symBinAddr: 0x8E4, symSize: 0x18 }
  - { offset: 0x384A, size: 0x8, addend: 0x0, symName: __ZN4pyo35impl_5panic9PanicTrap6disarm17hea6ede8684eb69edE, symObjAddr: 0x18, symBinAddr: 0x8FC, symSize: 0x28 }
  - { offset: 0x388A, size: 0x8, addend: 0x0, symName: __ZN4pyo35impl_12deprecations12inspect_type17h94bfef6b8861fd6dE, symObjAddr: 0x0, symBinAddr: 0x924, symSize: 0x18 }
  - { offset: 0x49F7, size: 0x8, addend: 0x0, symName: __ZN4pyo35impl_12deprecations12inspect_type17h94bfef6b8861fd6dE, symObjAddr: 0x0, symBinAddr: 0x924, symSize: 0x18 }
  - { offset: 0x4ADE, size: 0x8, addend: 0x0, symName: '__ZN87_$LT$pyo3..impl_..deprecations..GilRefs$LT$T$GT$$u20$as$u20$core..ops..deref..Deref$GT$5deref17hbeff4a99580a6727E', symObjAddr: 0x3C, symBinAddr: 0x960, symSize: 0x14 }
  - { offset: 0x4B19, size: 0x8, addend: 0x0, symName: '__ZN93_$LT$pyo3..impl_..deprecations..OptionGilRefs$LT$T$GT$$u20$as$u20$core..ops..deref..Deref$GT$5deref17h932a2150204d0797E', symObjAddr: 0x50, symBinAddr: 0x974, symSize: 0x14 }
  - { offset: 0x5101, size: 0x8, addend: 0x0, symName: '__ZN4pyo35impl_12deprecations16GilRefs$LT$T$GT$3new17hbc89e985070723b7E', symObjAddr: 0x18, symBinAddr: 0x93C, symSize: 0x4 }
  - { offset: 0x512B, size: 0x8, addend: 0x0, symName: '__ZN4pyo35impl_12deprecations19NotAGilRef$LT$T$GT$12function_arg17hcb535faf688d1f39E', symObjAddr: 0x1C, symBinAddr: 0x940, symSize: 0x10 }
  - { offset: 0x5156, size: 0x8, addend: 0x0, symName: '__ZN4pyo35impl_12deprecations19NotAGilRef$LT$T$GT$9is_python17h445e89c139aac7fdE', symObjAddr: 0x2C, symBinAddr: 0x950, symSize: 0x10 }
  - { offset: 0x51B9, size: 0x8, addend: 0x0, symName: '__ZN4pyo35impl_9pymethods133_$LT$impl$u20$core..convert..From$LT$pyo3..impl_..pymethods..BoundRef$LT$T$GT$$GT$$u20$for$u20$$RF$pyo3..instance..Bound$LT$T$GT$$GT$4from17hee896df1f1e830deE', symObjAddr: 0x0, symBinAddr: 0x988, symSize: 0x14 }
  - { offset: 0x6319, size: 0x8, addend: 0x0, symName: '__ZN4pyo35impl_9pymethods133_$LT$impl$u20$core..convert..From$LT$pyo3..impl_..pymethods..BoundRef$LT$T$GT$$GT$$u20$for$u20$$RF$pyo3..instance..Bound$LT$T$GT$$GT$4from17hee896df1f1e830deE', symObjAddr: 0x0, symBinAddr: 0x988, symSize: 0x14 }
  - { offset: 0x68FB, size: 0x8, addend: 0x0, symName: '__ZN4pyo38instance11Py$LT$T$GT$8into_ptr17h7e27e4b35eca955eE', symObjAddr: 0x14, symBinAddr: 0x99C, symSize: 0x30 }
  - { offset: 0x698A, size: 0x8, addend: 0x0, symName: __ZN4pyo33gil8GILGuard6python17h5c6973a8a2cb46aeE, symObjAddr: 0x0, symBinAddr: 0x9CC, symSize: 0x20 }
  - { offset: 0x6A3A, size: 0x8, addend: 0x0, symName: __ZN4pyo33gil8GILGuard6python17h5c6973a8a2cb46aeE, symObjAddr: 0x0, symBinAddr: 0x9CC, symSize: 0x20 }
  - { offset: 0x6A7A, size: 0x8, addend: 0x0, symName: __ZN3std9panicking12catch_unwind7do_call17haa45f7440337fbe8E, symObjAddr: 0x0, symBinAddr: 0x9EC, symSize: 0x80 }
  - { offset: 0x8874, size: 0x8, addend: 0x0, symName: __ZN3std9panicking12catch_unwind7do_call17haa45f7440337fbe8E, symObjAddr: 0x0, symBinAddr: 0x9EC, symSize: 0x80 }
  - { offset: 0x896F, size: 0x8, addend: 0x0, symName: __ZN3std9panicking12catch_unwind7do_call17he4bfe5d2494329b9E, symObjAddr: 0x80, symBinAddr: 0xA6C, symSize: 0x8C }
  - { offset: 0x8A6A, size: 0x8, addend: 0x0, symName: __ZN3std9panicking12catch_unwind8do_catch17h138fe008bac71534E, symObjAddr: 0x10C, symBinAddr: 0xAF8, symSize: 0x70 }
  - { offset: 0x8AFF, size: 0x8, addend: 0x0, symName: __ZN3std9panicking12catch_unwind8do_catch17h5008cabd3514427fE, symObjAddr: 0x17C, symBinAddr: 0xB68, symSize: 0x70 }
  - { offset: 0x8D0A, size: 0x8, addend: 0x0, symName: __ZN3std5panic12catch_unwind17h5085384e888e7898E, symObjAddr: 0x0, symBinAddr: 0xBD8, symSize: 0xCC }
  - { offset: 0xA460, size: 0x8, addend: 0x0, symName: __ZN3std5panic12catch_unwind17h5085384e888e7898E, symObjAddr: 0x0, symBinAddr: 0xBD8, symSize: 0xCC }
  - { offset: 0xA585, size: 0x8, addend: 0x0, symName: __ZN3std5panic12catch_unwind17h5fcfe28dc2cf5e07E, symObjAddr: 0xCC, symBinAddr: 0xCA4, symSize: 0xDC }
  - { offset: 0xB003, size: 0x8, addend: 0x0, symName: __ZN4pyo35impl_10trampoline10trampoline17h363db4f3f045a19fE, symObjAddr: 0x0, symBinAddr: 0xDD4, symSize: 0x158 }
  - { offset: 0xC39F, size: 0x8, addend: 0x0, symName: __ZN4pyo35impl_10trampoline10trampoline17h363db4f3f045a19fE, symObjAddr: 0x0, symBinAddr: 0xDD4, symSize: 0x158 }
  - { offset: 0xC442, size: 0x8, addend: 0x0, symName: __ZN4pyo35impl_10trampoline10trampoline17h7873b49b6670c58fE, symObjAddr: 0x158, symBinAddr: 0xF2C, symSize: 0x14C }
  - { offset: 0xC4EA, size: 0x8, addend: 0x0, symName: '__ZN4pyo35impl_10trampoline10trampoline28_$u7b$$u7b$closure$u7d$$u7d$17h2aba2b402b17935bE', symObjAddr: 0x2A4, symBinAddr: 0x1078, symSize: 0x24 }
  - { offset: 0xC538, size: 0x8, addend: 0x0, symName: '__ZN4pyo35impl_10trampoline10trampoline28_$u7b$$u7b$closure$u7d$$u7d$17hd45c05fa3308e4e3E', symObjAddr: 0x2C8, symBinAddr: 0x109C, symSize: 0x2C }
  - { offset: 0xC58C, size: 0x8, addend: 0x0, symName: '__ZN4pyo35impl_10trampoline11module_init28_$u7b$$u7b$closure$u7d$$u7d$17h7f97c3fa2ed412daE', symObjAddr: 0x2F4, symBinAddr: 0x10C8, symSize: 0x40 }
  - { offset: 0xC5D8, size: 0x8, addend: 0x0, symName: '__ZN4pyo35impl_10trampoline11module_init28_$u7b$$u7b$closure$u7d$$u7d$28_$u7b$$u7b$closure$u7d$$u7d$17ha63ac49f838ca36aE', symObjAddr: 0x334, symBinAddr: 0x1108, symSize: 0x24 }
  - { offset: 0xC62F, size: 0x8, addend: 0x0, symName: '__ZN4pyo35impl_10trampoline6noargs28_$u7b$$u7b$closure$u7d$$u7d$17hc635e8ecc204d9f4E', symObjAddr: 0x358, symBinAddr: 0x112C, symSize: 0x34 }
  - { offset: 0xCF0B, size: 0x8, addend: 0x0, symName: '__ZN4pyo311conversions3std6string119_$LT$impl$u20$pyo3..conversion..IntoPy$LT$pyo3..instance..Py$LT$pyo3..types..any..PyAny$GT$$GT$$u20$for$u20$$RF$str$GT$7into_py17h10f89424405ffa05E', symObjAddr: 0x0, symBinAddr: 0x1160, symSize: 0x34 }
  - { offset: 0xE022, size: 0x8, addend: 0x0, symName: '__ZN4pyo311conversions3std6string119_$LT$impl$u20$pyo3..conversion..IntoPy$LT$pyo3..instance..Py$LT$pyo3..types..any..PyAny$GT$$GT$$u20$for$u20$$RF$str$GT$7into_py17h10f89424405ffa05E', symObjAddr: 0x0, symBinAddr: 0x1160, symSize: 0x34 }
  - { offset: 0xE614, size: 0x8, addend: 0x0, symName: __ZN4core3ops8function6FnOnce9call_once17h7cf3f4facbf2888cE, symObjAddr: 0x0, symBinAddr: 0x1194, symSize: 0x3C }
  - { offset: 0xEDCB, size: 0x8, addend: 0x0, symName: __ZN4core3ops8function6FnOnce9call_once17h7cf3f4facbf2888cE, symObjAddr: 0x0, symBinAddr: 0x1194, symSize: 0x3C }
  - { offset: 0x10180, size: 0x8, addend: 0x0, symName: '__ZN16applegpu_runtime16applegpu_runtime11__pyo3_init28_$u7b$$u7b$closure$u7d$$u7d$17hf1dc50eefe361b84E', symObjAddr: 0x0, symBinAddr: 0x11D0, symSize: 0x28 }
  - { offset: 0x1149C, size: 0x8, addend: 0x0, symName: '__ZN16applegpu_runtime16applegpu_runtime11__pyo3_init28_$u7b$$u7b$closure$u7d$$u7d$17hf1dc50eefe361b84E', symObjAddr: 0x0, symBinAddr: 0x11D0, symSize: 0x28 }
  - { offset: 0x11CC3, size: 0x8, addend: 0x0, symName: '__ZN4core6result19Result$LT$T$C$E$GT$3map17h6f15bf5351e64434E', symObjAddr: 0x0, symBinAddr: 0x11F8, symSize: 0x80 }
  - { offset: 0x139C1, size: 0x8, addend: 0x0, symName: '__ZN4core6result19Result$LT$T$C$E$GT$3map17h6f15bf5351e64434E', symObjAddr: 0x0, symBinAddr: 0x11F8, symSize: 0x80 }
  - { offset: 0x13AC0, size: 0x8, addend: 0x0, symName: '__ZN4core6result19Result$LT$T$C$E$GT$3map17ha49967e95e50f40eE', symObjAddr: 0x80, symBinAddr: 0x1278, symSize: 0x94 }
  - { offset: 0x13B6B, size: 0x8, addend: 0x0, symName: '__ZN4core6result19Result$LT$T$C$E$GT$7map_err17hdcf477d6bee5fcb5E', symObjAddr: 0x114, symBinAddr: 0x130C, symSize: 0x40 }
  - { offset: 0x13BFE, size: 0x8, addend: 0x0, symName: __ZN16applegpu_runtime16applegpu_runtime17h7c90c46bc5db1e94E, symObjAddr: 0x0, symBinAddr: 0x134C, symSize: 0x194 }
  - { offset: 0x15073, size: 0x8, addend: 0x0, symName: __ZN16applegpu_runtime16applegpu_runtime17h7c90c46bc5db1e94E, symObjAddr: 0x0, symBinAddr: 0x134C, symSize: 0x194 }
  - { offset: 0x15154, size: 0x8, addend: 0x0, symName: __ZN16applegpu_runtime20__pyfunction_version17h867ec6e8f54a3d09E, symObjAddr: 0x194, symBinAddr: 0x14E0, symSize: 0x54 }
  - { offset: 0x151FA, size: 0x8, addend: 0x0, symName: '__ZN16applegpu_runtime52_$LT$impl$u20$applegpu_runtime..version..MakeDef$GT$9_PYO3_DEF10trampoline17hb2dda2675033fa32E', symObjAddr: 0x1E8, symBinAddr: 0x1534, symSize: 0x44 }
  - { offset: 0x15240, size: 0x8, addend: 0x0, symName: '__ZN16applegpu_runtime61_$LT$impl$u20$applegpu_runtime..applegpu_runtime..MakeDef$GT$8make_def15__pyo3_pymodule17hce4599e3cece3270E', symObjAddr: 0x22C, symBinAddr: 0x1578, symSize: 0x38 }
  - { offset: 0x1526E, size: 0x8, addend: 0x0, symName: __ZN16applegpu_runtime7version17h918568d463bcee98E, symObjAddr: 0x264, symBinAddr: 0x15B0, symSize: 0x14 }
  - { offset: 0x15B3F, size: 0x8, addend: 0x0, symName: __ZN4pyo35impl_4wrap19map_result_into_ptr17h975120d96f893c8bE, symObjAddr: 0x0, symBinAddr: 0x15C4, symSize: 0x44 }
  - { offset: 0x16F4C, size: 0x8, addend: 0x0, symName: __ZN4pyo35impl_4wrap19map_result_into_ptr17h975120d96f893c8bE, symObjAddr: 0x0, symBinAddr: 0x15C4, symSize: 0x44 }
  - { offset: 0x16FA0, size: 0x8, addend: 0x0, symName: '__ZN4pyo35impl_4wrap19map_result_into_ptr28_$u7b$$u7b$closure$u7d$$u7d$17h489433d53ed77133E', symObjAddr: 0x44, symBinAddr: 0x1608, symSize: 0x3C }
  - { offset: 0x17007, size: 0x8, addend: 0x0, symName: '__ZN56_$LT$T$u20$as$u20$pyo3..impl_..wrap..OkWrap$LT$T$GT$$GT$4wrap17h68f537e178889f5aE', symObjAddr: 0x80, symBinAddr: 0x1644, symSize: 0x18 }
  - { offset: 0x177F2, size: 0x8, addend: 0x0, symName: __ZN4pyo35impl_10trampoline11module_init17h551190c9c5c35730E, symObjAddr: 0x0, symBinAddr: 0x165C, symSize: 0x28 }
  - { offset: 0x18B8E, size: 0x8, addend: 0x0, symName: __ZN4pyo35impl_10trampoline11module_init17h551190c9c5c35730E, symObjAddr: 0x0, symBinAddr: 0x165C, symSize: 0x28 }
  - { offset: 0x18BBA, size: 0x8, addend: 0x0, symName: __ZN4pyo35impl_10trampoline6noargs17h728c74d8298524a5E, symObjAddr: 0x28, symBinAddr: 0x1684, symSize: 0x64 }
  - { offset: 0x193FD, size: 0x8, addend: 0x0, symName: __ZN13applegpu_core7version17h1f072b4e5aa9c19bE, symObjAddr: 0x0, symBinAddr: 0x16FC, symSize: 0x14 }
  - { offset: 0x1940F, size: 0x8, addend: 0x0, symName: __ZN13applegpu_core7version17h1f072b4e5aa9c19bE, symObjAddr: 0x0, symBinAddr: 0x16FC, symSize: 0x14 }
  - { offset: 0x198FD, size: 0x8, addend: 0x0, symName: '__ZN42_$LT$$RF$T$u20$as$u20$core..fmt..Debug$GT$3fmt17h536ed8dd9c28e092E', symObjAddr: 0x65F0, symBinAddr: 0x28A0, symSize: 0x30 }
  - { offset: 0x19AB6, size: 0x8, addend: 0x0, symName: '__ZN4core5array4iter94_$LT$impl$u20$core..iter..traits..collect..IntoIterator$u20$for$u20$$u5b$T$u3b$$u20$N$u5d$$GT$9into_iter17hc75d81de73244fa1E', symObjAddr: 0x6880, symBinAddr: 0x28D0, symSize: 0x68 }
  - { offset: 0x1B45F, size: 0x8, addend: 0x0, symName: '__ZN50_$LT$T$u20$as$u20$core..convert..Into$LT$U$GT$$GT$4into17h378ef4a65db1069fE', symObjAddr: 0xCE54, symBinAddr: 0x47D8, symSize: 0x24 }
  - { offset: 0x1B49F, size: 0x8, addend: 0x0, symName: '__ZN50_$LT$T$u20$as$u20$core..convert..Into$LT$U$GT$$GT$4into17h54c6800f78e09799E', symObjAddr: 0xCEC0, symBinAddr: 0x47FC, symSize: 0x24 }
  - { offset: 0x1B4DF, size: 0x8, addend: 0x0, symName: '__ZN50_$LT$T$u20$as$u20$core..convert..Into$LT$U$GT$$GT$4into17h6e8aaea7a4b8fbc3E', symObjAddr: 0xCF08, symBinAddr: 0x4820, symSize: 0x24 }
  - { offset: 0x1B51F, size: 0x8, addend: 0x0, symName: '__ZN50_$LT$T$u20$as$u20$core..convert..Into$LT$U$GT$$GT$4into17h7a5e9eeac047d1a9E', symObjAddr: 0xCF50, symBinAddr: 0x4844, symSize: 0x24 }
  - { offset: 0x1B55F, size: 0x8, addend: 0x0, symName: '__ZN50_$LT$T$u20$as$u20$core..convert..Into$LT$U$GT$$GT$4into17ha8642a6c3fe9d550E', symObjAddr: 0xCF74, symBinAddr: 0x4868, symSize: 0x24 }
  - { offset: 0x1BD87, size: 0x8, addend: 0x0, symName: '__ZN103_$LT$pyo3..instance..Bound$LT$pyo3..types..any..PyAny$GT$$u20$as$u20$pyo3..types..any..PyAnyMethods$GT$13downcast_into17h556c8d8bdaf3722eE', symObjAddr: 0x480, symBinAddr: 0x1710, symSize: 0xE8 }
  - { offset: 0x1BDBE, size: 0x8, addend: 0x0, symName: '__ZN103_$LT$pyo3..instance..Bound$LT$pyo3..types..any..PyAny$GT$$u20$as$u20$pyo3..types..any..PyAnyMethods$GT$13downcast_into17h81714f1d97df2858E', symObjAddr: 0x738, symBinAddr: 0x17F8, symSize: 0xE8 }
  - { offset: 0x1BDF5, size: 0x8, addend: 0x0, symName: '__ZN103_$LT$pyo3..instance..Bound$LT$pyo3..types..any..PyAny$GT$$u20$as$u20$pyo3..types..any..PyAnyMethods$GT$23downcast_into_unchecked17h3e94974a304690d8E', symObjAddr: 0x1034, symBinAddr: 0x18E0, symSize: 0x14 }
  - { offset: 0x1BE2C, size: 0x8, addend: 0x0, symName: '__ZN103_$LT$pyo3..instance..Bound$LT$pyo3..types..any..PyAny$GT$$u20$as$u20$pyo3..types..any..PyAnyMethods$GT$23downcast_into_unchecked17h563b7cb91f561c2dE', symObjAddr: 0x105C, symBinAddr: 0x18F4, symSize: 0x14 }
  - { offset: 0x1BE63, size: 0x8, addend: 0x0, symName: '__ZN103_$LT$pyo3..instance..Bound$LT$pyo3..types..any..PyAny$GT$$u20$as$u20$pyo3..types..any..PyAnyMethods$GT$23downcast_into_unchecked17h574784af092c71d9E', symObjAddr: 0x1070, symBinAddr: 0x1908, symSize: 0x14 }
  - { offset: 0x1BE9A, size: 0x8, addend: 0x0, symName: '__ZN103_$LT$pyo3..instance..Bound$LT$pyo3..types..any..PyAny$GT$$u20$as$u20$pyo3..types..any..PyAnyMethods$GT$23downcast_into_unchecked17h7b60de434a7c6fc4E', symObjAddr: 0x10C0, symBinAddr: 0x191C, symSize: 0x14 }
  - { offset: 0x1BED1, size: 0x8, addend: 0x0, symName: '__ZN103_$LT$pyo3..instance..Bound$LT$pyo3..types..any..PyAny$GT$$u20$as$u20$pyo3..types..any..PyAnyMethods$GT$23downcast_into_unchecked17ha6a9bdfc342335f9E', symObjAddr: 0x114C, symBinAddr: 0x1930, symSize: 0x14 }
  - { offset: 0x1BF08, size: 0x8, addend: 0x0, symName: '__ZN103_$LT$pyo3..instance..Bound$LT$pyo3..types..any..PyAny$GT$$u20$as$u20$pyo3..types..any..PyAnyMethods$GT$3str17hfb3d9dea4eadaec9E', symObjAddr: 0x1668, symBinAddr: 0x1944, symSize: 0x5C }
  - { offset: 0x1BF36, size: 0x8, addend: 0x0, symName: '__ZN103_$LT$pyo3..instance..Bound$LT$pyo3..types..any..PyAny$GT$$u20$as$u20$pyo3..types..any..PyAnyMethods$GT$4repr17h5aaac23625f99d9fE', symObjAddr: 0x1824, symBinAddr: 0x19A0, symSize: 0x5C }
  - { offset: 0x1BF64, size: 0x8, addend: 0x0, symName: '__ZN103_$LT$pyo3..instance..Bound$LT$pyo3..types..any..PyAny$GT$$u20$as$u20$pyo3..types..any..PyAnyMethods$GT$7getattr17hcefb06279a9af912E', symObjAddr: 0x1F24, symBinAddr: 0x19FC, symSize: 0xE4 }
  - { offset: 0x1BFC0, size: 0x8, addend: 0x0, symName: '__ZN103_$LT$pyo3..instance..Bound$LT$pyo3..types..any..PyAny$GT$$u20$as$u20$pyo3..types..any..PyAnyMethods$GT$7setattr17h69edae2bb67a820bE', symObjAddr: 0x204C, symBinAddr: 0x1AE0, symSize: 0x11C }
  - { offset: 0x1C035, size: 0x8, addend: 0x0, symName: '__ZN103_$LT$pyo3..instance..Bound$LT$pyo3..types..any..PyAny$GT$$u20$as$u20$pyo3..types..any..PyAnyMethods$GT$7setattr17h8f6aa1d6c89f1645E', symObjAddr: 0x2168, symBinAddr: 0x1BFC, symSize: 0x140 }
  - { offset: 0x1C0A9, size: 0x8, addend: 0x0, symName: '__ZN103_$LT$pyo3..instance..Bound$LT$pyo3..types..any..PyAny$GT$$u20$as$u20$pyo3..types..any..PyAnyMethods$GT$8get_type17h42f9e7da62de11c8E', symObjAddr: 0x2640, symBinAddr: 0x1D3C, symSize: 0x38 }
  - { offset: 0x1C0F8, size: 0x8, addend: 0x0, symName: '__ZN107_$LT$pyo3..instance..Bound$LT$pyo3..types..list..PyList$GT$$u20$as$u20$pyo3..types..list..PyListMethods$GT$6append17h6ec48c2099fed08fE', symObjAddr: 0x2D84, symBinAddr: 0x1DBC, symSize: 0x80 }
  - { offset: 0x1C17D, size: 0x8, addend: 0x0, symName: '__ZN111_$LT$pyo3..instance..Bound$LT$pyo3..types..bytes..PyBytes$GT$$u20$as$u20$pyo3..types..bytes..PyBytesMethods$GT$8as_bytes17h95e80885f0e2ea83E', symObjAddr: 0x2FA4, symBinAddr: 0x1E3C, symSize: 0x28 }
  - { offset: 0x1C212, size: 0x8, addend: 0x0, symName: '__ZN115_$LT$pyo3..instance..Bound$LT$pyo3..types..module..PyModule$GT$$u20$as$u20$pyo3..types..module..PyModuleMethods$GT$12add_function17h20c4501280a27ea7E', symObjAddr: 0x35D4, symBinAddr: 0x1E64, symSize: 0x200 }
  - { offset: 0x1C2C3, size: 0x8, addend: 0x0, symName: '__ZN115_$LT$pyo3..instance..Bound$LT$pyo3..types..module..PyModule$GT$$u20$as$u20$pyo3..types..module..PyModuleMethods$GT$3add17h7e8ee2db2b79e679E', symObjAddr: 0x3B68, symBinAddr: 0x2064, symSize: 0x13C }
  - { offset: 0x1C337, size: 0x8, addend: 0x0, symName: '__ZN115_$LT$pyo3..instance..Bound$LT$pyo3..types..module..PyModule$GT$$u20$as$u20$pyo3..types..module..PyModuleMethods$GT$4name17hf13b22a33c00b2adE', symObjAddr: 0x3CF8, symBinAddr: 0x21A0, symSize: 0x5C }
  - { offset: 0x1C365, size: 0x8, addend: 0x0, symName: '__ZN115_$LT$pyo3..instance..Bound$LT$pyo3..types..module..PyModule$GT$$u20$as$u20$pyo3..types..module..PyModuleMethods$GT$5index17hc1e869ad4d6e1c2cE', symObjAddr: 0x3D54, symBinAddr: 0x21FC, symSize: 0x258 }
  - { offset: 0x1C438, size: 0x8, addend: 0x0, symName: '__ZN115_$LT$pyo3..instance..Bound$LT$pyo3..types..string..PyString$GT$$u20$as$u20$pyo3..types..string..PyStringMethods$GT$15to_string_lossy17hd62543a77bfa6e9bE', symObjAddr: 0x4064, symBinAddr: 0x2454, symSize: 0x30 }
  - { offset: 0x1C466, size: 0x8, addend: 0x0, symName: '__ZN115_$LT$pyo3..instance..Bound$LT$pyo3..types..string..PyString$GT$$u20$as$u20$pyo3..types..string..PyStringMethods$GT$6to_cow17h877c2c23f3036d72E', symObjAddr: 0x40C4, symBinAddr: 0x2484, symSize: 0x30 }
  - { offset: 0x1C49A, size: 0x8, addend: 0x0, symName: '__ZN4pyo35types6string176_$LT$impl$u20$pyo3..conversion..IntoPy$LT$pyo3..instance..Py$LT$pyo3..types..string..PyString$GT$$GT$$u20$for$u20$pyo3..instance..Bound$LT$pyo3..types..string..PyString$GT$$GT$7into_py17h4ff97fd638cb877cE', symObjAddr: 0x7594, symBinAddr: 0x29D4, symSize: 0x24 }
  - { offset: 0x1C4E9, size: 0x8, addend: 0x0, symName: '__ZN4pyo35types6string180_$LT$impl$u20$pyo3..conversion..IntoPy$LT$pyo3..instance..Py$LT$pyo3..types..string..PyString$GT$$GT$$u20$for$u20$$RF$pyo3..instance..Bound$LT$pyo3..types..string..PyString$GT$$GT$7into_py17hf4a7107d831d79fdE', symObjAddr: 0x75DC, symBinAddr: 0x29F8, symSize: 0x28 }
  - { offset: 0x1C5D2, size: 0x8, addend: 0x0, symName: '__ZN119_$LT$pyo3..instance..Bound$LT$pyo3..types..typeobject..PyType$GT$$u20$as$u20$pyo3..types..typeobject..PyTypeMethods$GT$11as_type_ptr17h88de9605730149d0E', symObjAddr: 0x487C, symBinAddr: 0x24B4, symSize: 0x24 }
  - { offset: 0x1C5FE, size: 0x8, addend: 0x0, symName: '__ZN119_$LT$pyo3..instance..Bound$LT$pyo3..types..typeobject..PyType$GT$$u20$as$u20$pyo3..types..typeobject..PyTypeMethods$GT$4name17h965e7a3a4699cfd0E', symObjAddr: 0x4EE0, symBinAddr: 0x24D8, symSize: 0xC8 }
  - { offset: 0x1C665, size: 0x8, addend: 0x0, symName: '__ZN119_$LT$pyo3..instance..Bound$LT$pyo3..types..typeobject..PyType$GT$$u20$as$u20$pyo3..types..typeobject..PyTypeMethods$GT$8qualname17h779ec89d8ab20d2eE', symObjAddr: 0x5190, symBinAddr: 0x25A0, symSize: 0xC8 }
  - { offset: 0x1C75A, size: 0x8, addend: 0x0, symName: '__ZN105_$LT$pyo3..instance..Py$LT$T$GT$$u20$as$u20$core..convert..From$LT$pyo3..instance..Bound$LT$T$GT$$GT$$GT$4from17h02060a28d73734bcE', symObjAddr: 0x28C8, symBinAddr: 0x1D74, symSize: 0x24 }
  - { offset: 0x1C791, size: 0x8, addend: 0x0, symName: '__ZN105_$LT$pyo3..instance..Py$LT$T$GT$$u20$as$u20$core..convert..From$LT$pyo3..instance..Bound$LT$T$GT$$GT$$GT$4from17h0e8a6038c3fe234dE', symObjAddr: 0x28EC, symBinAddr: 0x1D98, symSize: 0x24 }
  - { offset: 0x1C7CE, size: 0x8, addend: 0x0, symName: '__ZN124_$LT$pyo3..instance..Py$LT$pyo3..types..any..PyAny$GT$$u20$as$u20$core..convert..From$LT$pyo3..instance..Py$LT$T$GT$$GT$$GT$4from17h2448afe3bab33b17E', symObjAddr: 0x53CC, symBinAddr: 0x2668, symSize: 0x24 }
  - { offset: 0x1C80B, size: 0x8, addend: 0x0, symName: '__ZN127_$LT$pyo3..instance..Py$LT$pyo3..types..any..PyAny$GT$$u20$as$u20$core..convert..From$LT$pyo3..instance..Bound$LT$T$GT$$GT$$GT$4from17h8e25617dc47ae5deE', symObjAddr: 0x5DE4, symBinAddr: 0x268C, symSize: 0x84 }
  - { offset: 0x1C860, size: 0x8, addend: 0x0, symName: '__ZN127_$LT$pyo3..instance..Py$LT$pyo3..types..any..PyAny$GT$$u20$as$u20$core..convert..From$LT$pyo3..instance..Bound$LT$T$GT$$GT$$GT$4from17hd5ceee22a878e241E', symObjAddr: 0x5EEC, symBinAddr: 0x2710, symSize: 0x84 }
  - { offset: 0x1C8BB, size: 0x8, addend: 0x0, symName: '__ZN132_$LT$pyo3..instance..Bound$LT$T$GT$$u20$as$u20$pyo3..conversion..IntoPy$LT$pyo3..instance..Py$LT$pyo3..types..any..PyAny$GT$$GT$$GT$7into_py17h065365bfa0aed428E', symObjAddr: 0x6018, symBinAddr: 0x2794, symSize: 0x28 }
  - { offset: 0x1C90D, size: 0x8, addend: 0x0, symName: '__ZN132_$LT$pyo3..instance..Bound$LT$T$GT$$u20$as$u20$pyo3..conversion..IntoPy$LT$pyo3..instance..Py$LT$pyo3..types..any..PyAny$GT$$GT$$GT$7into_py17h8860c44331e51f71E', symObjAddr: 0x6108, symBinAddr: 0x27BC, symSize: 0x28 }
  - { offset: 0x1C95F, size: 0x8, addend: 0x0, symName: '__ZN132_$LT$pyo3..instance..Bound$LT$T$GT$$u20$as$u20$pyo3..conversion..IntoPy$LT$pyo3..instance..Py$LT$pyo3..types..any..PyAny$GT$$GT$$GT$7into_py17habd58c61306a7223E', symObjAddr: 0x6180, symBinAddr: 0x27E4, symSize: 0x28 }
  - { offset: 0x1C9B1, size: 0x8, addend: 0x0, symName: '__ZN132_$LT$pyo3..instance..Bound$LT$T$GT$$u20$as$u20$pyo3..conversion..IntoPy$LT$pyo3..instance..Py$LT$pyo3..types..any..PyAny$GT$$GT$$GT$7into_py17hb9a906631f48d434E', symObjAddr: 0x61D0, symBinAddr: 0x280C, symSize: 0x28 }
  - { offset: 0x1CA03, size: 0x8, addend: 0x0, symName: '__ZN132_$LT$pyo3..instance..Bound$LT$T$GT$$u20$as$u20$pyo3..conversion..IntoPy$LT$pyo3..instance..Py$LT$pyo3..types..any..PyAny$GT$$GT$$GT$7into_py17he3a0dc61c2c6dddaE', symObjAddr: 0x61F8, symBinAddr: 0x2834, symSize: 0x28 }
  - { offset: 0x1DCE8, size: 0x8, addend: 0x0, symName: '__ZN4pyo38instance11Py$LT$T$GT$21from_owned_ptr_or_opt28_$u7b$$u7b$closure$u7d$$u7d$17h7ac2dab306adcb09E', symObjAddr: 0x915C, symBinAddr: 0x303C, symSize: 0x14 }
  - { offset: 0x1DD2A, size: 0x8, addend: 0x0, symName: '__ZN4pyo38instance11Py$LT$T$GT$21from_owned_ptr_or_opt28_$u7b$$u7b$closure$u7d$$u7d$17h8c82aed608b01ad1E', symObjAddr: 0x9170, symBinAddr: 0x3050, symSize: 0x14 }
  - { offset: 0x1DD6C, size: 0x8, addend: 0x0, symName: '__ZN4pyo38instance11Py$LT$T$GT$21from_owned_ptr_or_opt28_$u7b$$u7b$closure$u7d$$u7d$17h974e502ae9e5be2bE', symObjAddr: 0x9184, symBinAddr: 0x3064, symSize: 0x14 }
  - { offset: 0x1DDAE, size: 0x8, addend: 0x0, symName: '__ZN4pyo38instance11Py$LT$T$GT$21from_owned_ptr_or_opt28_$u7b$$u7b$closure$u7d$$u7d$17hcb680ec8e54e1cc4E', symObjAddr: 0x9198, symBinAddr: 0x3078, symSize: 0x14 }
  - { offset: 0x1E0E9, size: 0x8, addend: 0x0, symName: __ZN4pyo38instance13python_format17hdd1be74f6ee83befE, symObjAddr: 0xAD54, symBinAddr: 0x3C38, symSize: 0x2E8 }
  - { offset: 0x1E525, size: 0x8, addend: 0x0, symName: '__ZN4pyo38instance36Bound$LT$pyo3..types..any..PyAny$GT$21from_owned_ptr_or_err28_$u7b$$u7b$closure$u7d$$u7d$17h17271417765f9402E', symObjAddr: 0xC9F4, symBinAddr: 0x4770, symSize: 0x28 }
  - { offset: 0x1E584, size: 0x8, addend: 0x0, symName: '__ZN67_$LT$pyo3..instance..Bound$LT$T$GT$$u20$as$u20$core..fmt..Debug$GT$3fmt17h0f857d674757e719E', symObjAddr: 0xD0A0, symBinAddr: 0x48DC, symSize: 0x54 }
  - { offset: 0x1E5E8, size: 0x8, addend: 0x0, symName: '__ZN67_$LT$pyo3..instance..Bound$LT$T$GT$$u20$as$u20$core..fmt..Debug$GT$3fmt17h2dab6103d3f5a6c3E', symObjAddr: 0xD0F4, symBinAddr: 0x4930, symSize: 0x54 }
  - { offset: 0x1E64C, size: 0x8, addend: 0x0, symName: '__ZN67_$LT$pyo3..instance..Bound$LT$T$GT$$u20$as$u20$core..fmt..Debug$GT$3fmt17hfa387e125abb860dE', symObjAddr: 0xD148, symBinAddr: 0x4984, symSize: 0x54 }
  - { offset: 0x1E6B6, size: 0x8, addend: 0x0, symName: '__ZN69_$LT$pyo3..instance..Bound$LT$T$GT$$u20$as$u20$core..clone..Clone$GT$5clone17h14640d2e12fb994aE', symObjAddr: 0xD19C, symBinAddr: 0x49D8, symSize: 0x34 }
  - { offset: 0x1E6ED, size: 0x8, addend: 0x0, symName: '__ZN69_$LT$pyo3..instance..Bound$LT$T$GT$$u20$as$u20$core..clone..Clone$GT$5clone17h295b672b99e81458E', symObjAddr: 0xD238, symBinAddr: 0x4A0C, symSize: 0x34 }
  - { offset: 0x1E724, size: 0x8, addend: 0x0, symName: '__ZN69_$LT$pyo3..instance..Bound$LT$T$GT$$u20$as$u20$core..clone..Clone$GT$5clone17h7ffe6273317e96f2E', symObjAddr: 0xD308, symBinAddr: 0x4A40, symSize: 0x34 }
  - { offset: 0x1E75B, size: 0x8, addend: 0x0, symName: '__ZN69_$LT$pyo3..instance..Bound$LT$T$GT$$u20$as$u20$core..clone..Clone$GT$5clone17hf236903485dac8c2E', symObjAddr: 0xD474, symBinAddr: 0x4A74, symSize: 0x34 }
  - { offset: 0x1E792, size: 0x8, addend: 0x0, symName: '__ZN69_$LT$pyo3..instance..Bound$LT$T$GT$$u20$as$u20$core..clone..Clone$GT$5clone17hfd40836dc230f4a3E', symObjAddr: 0xD4A8, symBinAddr: 0x4AA8, symSize: 0x34 }
  - { offset: 0x1E7CF, size: 0x8, addend: 0x0, symName: '__ZN69_$LT$pyo3..instance..Bound$LT$T$GT$$u20$as$u20$core..fmt..Display$GT$3fmt17h348e38bd0f045e51E', symObjAddr: 0xD4DC, symBinAddr: 0x4ADC, symSize: 0x54 }
  - { offset: 0x1E839, size: 0x8, addend: 0x0, symName: '__ZN69_$LT$pyo3..instance..Py$LT$T$GT$$u20$as$u20$core..ops..drop..Drop$GT$4drop17h04446207acc8532dE', symObjAddr: 0xD62C, symBinAddr: 0x4B30, symSize: 0x28 }
  - { offset: 0x1E86C, size: 0x8, addend: 0x0, symName: '__ZN69_$LT$pyo3..instance..Py$LT$T$GT$$u20$as$u20$core..ops..drop..Drop$GT$4drop17h10380f9d62d67368E', symObjAddr: 0xD654, symBinAddr: 0x4B58, symSize: 0x28 }
  - { offset: 0x1E89F, size: 0x8, addend: 0x0, symName: '__ZN69_$LT$pyo3..instance..Py$LT$T$GT$$u20$as$u20$core..ops..drop..Drop$GT$4drop17h1bdca1294790704bE', symObjAddr: 0xD67C, symBinAddr: 0x4B80, symSize: 0x28 }
  - { offset: 0x1E8D2, size: 0x8, addend: 0x0, symName: '__ZN69_$LT$pyo3..instance..Py$LT$T$GT$$u20$as$u20$core..ops..drop..Drop$GT$4drop17hac008bd8318c3663E', symObjAddr: 0xD6CC, symBinAddr: 0x4BA8, symSize: 0x28 }
  - { offset: 0x1E905, size: 0x8, addend: 0x0, symName: '__ZN69_$LT$pyo3..instance..Py$LT$T$GT$$u20$as$u20$core..ops..drop..Drop$GT$4drop17hd59c03e0ec5bd113E', symObjAddr: 0xD6F4, symBinAddr: 0x4BD0, symSize: 0x28 }
  - { offset: 0x1E938, size: 0x8, addend: 0x0, symName: '__ZN69_$LT$pyo3..instance..Py$LT$T$GT$$u20$as$u20$core..ops..drop..Drop$GT$4drop17hd9f043a27cfb7edfE', symObjAddr: 0xD71C, symBinAddr: 0x4BF8, symSize: 0x28 }
  - { offset: 0x1E96B, size: 0x8, addend: 0x0, symName: '__ZN69_$LT$pyo3..instance..Py$LT$T$GT$$u20$as$u20$core..ops..drop..Drop$GT$4drop17hfe7890d6f2640a32E', symObjAddr: 0xD744, symBinAddr: 0x4C20, symSize: 0x28 }
  - { offset: 0x1E9A4, size: 0x8, addend: 0x0, symName: '__ZN72_$LT$pyo3..instance..Bound$LT$T$GT$$u20$as$u20$core..ops..drop..Drop$GT$4drop17h2b8fdb4fd45c5f6cE', symObjAddr: 0xD9F4, symBinAddr: 0x4C48, symSize: 0x144 }
  - { offset: 0x1E9F5, size: 0x8, addend: 0x0, symName: '__ZN72_$LT$pyo3..instance..Bound$LT$T$GT$$u20$as$u20$core..ops..drop..Drop$GT$4drop17h37dd033952139949E', symObjAddr: 0xDC7C, symBinAddr: 0x4D8C, symSize: 0x144 }
  - { offset: 0x1EA46, size: 0x8, addend: 0x0, symName: '__ZN72_$LT$pyo3..instance..Bound$LT$T$GT$$u20$as$u20$core..ops..drop..Drop$GT$4drop17h48641cb227491486E', symObjAddr: 0xDDC0, symBinAddr: 0x4ED0, symSize: 0x144 }
  - { offset: 0x1EA97, size: 0x8, addend: 0x0, symName: '__ZN72_$LT$pyo3..instance..Bound$LT$T$GT$$u20$as$u20$core..ops..drop..Drop$GT$4drop17h9cf97eb411bea181E', symObjAddr: 0xE558, symBinAddr: 0x5014, symSize: 0x144 }
  - { offset: 0x1EAE8, size: 0x8, addend: 0x0, symName: '__ZN72_$LT$pyo3..instance..Bound$LT$T$GT$$u20$as$u20$core..ops..drop..Drop$GT$4drop17hb38c847954770780E', symObjAddr: 0xE7E0, symBinAddr: 0x5158, symSize: 0x144 }
  - { offset: 0x1EB39, size: 0x8, addend: 0x0, symName: '__ZN72_$LT$pyo3..instance..Bound$LT$T$GT$$u20$as$u20$core..ops..drop..Drop$GT$4drop17hc7fe3c8e5c08b634E', symObjAddr: 0xEA68, symBinAddr: 0x529C, symSize: 0x144 }
  - { offset: 0x1EB8A, size: 0x8, addend: 0x0, symName: '__ZN72_$LT$pyo3..instance..Bound$LT$T$GT$$u20$as$u20$core..ops..drop..Drop$GT$4drop17hd155bc7fe365034bE', symObjAddr: 0xEBAC, symBinAddr: 0x53E0, symSize: 0x144 }
  - { offset: 0x1EBDB, size: 0x8, addend: 0x0, symName: '__ZN72_$LT$pyo3..instance..Bound$LT$T$GT$$u20$as$u20$core..ops..drop..Drop$GT$4drop17hfb90a5b32854a924E', symObjAddr: 0xF0BC, symBinAddr: 0x5524, symSize: 0x144 }
  - { offset: 0x1EC32, size: 0x8, addend: 0x0, symName: '__ZN74_$LT$pyo3..instance..Bound$LT$T$GT$$u20$as$u20$core..ops..deref..Deref$GT$5deref17h7a473035bd79cce3E', symObjAddr: 0xF290, symBinAddr: 0x5668, symSize: 0x24 }
  - { offset: 0x1EC69, size: 0x8, addend: 0x0, symName: '__ZN74_$LT$pyo3..instance..Bound$LT$T$GT$$u20$as$u20$core..ops..deref..Deref$GT$5deref17h985e79de17e69a64E', symObjAddr: 0xF2FC, symBinAddr: 0x568C, symSize: 0x24 }
  - { offset: 0x1ECA0, size: 0x8, addend: 0x0, symName: '__ZN74_$LT$pyo3..instance..Bound$LT$T$GT$$u20$as$u20$core..ops..deref..Deref$GT$5deref17hff5bfcb5c9aad998E', symObjAddr: 0xF344, symBinAddr: 0x56B0, symSize: 0x24 }
  - { offset: 0x1ECDD, size: 0x8, addend: 0x0, symName: '__ZN76_$LT$pyo3..instance..Py$LT$T$GT$$u20$as$u20$pyo3..conversion..ToPyObject$GT$9to_object17hfe312f8fab3e3bbfE', symObjAddr: 0xF390, symBinAddr: 0x56D4, symSize: 0x28 }
  - { offset: 0x1ED35, size: 0x8, addend: 0x0, symName: '__ZN77_$LT$pyo3..instance..Borrowed$LT$T$GT$$u20$as$u20$core..ops..deref..Deref$GT$5deref17h27f32e39e5f5cf8eE', symObjAddr: 0xF42C, symBinAddr: 0x56FC, symSize: 0x74 }
  - { offset: 0x1ED6C, size: 0x8, addend: 0x0, symName: '__ZN77_$LT$pyo3..instance..Borrowed$LT$T$GT$$u20$as$u20$core..ops..deref..Deref$GT$5deref17h96365f4a2523f04aE', symObjAddr: 0xF5FC, symBinAddr: 0x5770, symSize: 0x74 }
  - { offset: 0x1EDA3, size: 0x8, addend: 0x0, symName: '__ZN77_$LT$pyo3..instance..Borrowed$LT$T$GT$$u20$as$u20$core..ops..deref..Deref$GT$5deref17hd46e701540f12016E', symObjAddr: 0xF758, symBinAddr: 0x57E4, symSize: 0x74 }
  - { offset: 0x1EDDA, size: 0x8, addend: 0x0, symName: '__ZN77_$LT$pyo3..instance..Borrowed$LT$T$GT$$u20$as$u20$core..ops..deref..Deref$GT$5deref17hf6e36fe6fbb2c4a8E', symObjAddr: 0xF840, symBinAddr: 0x5858, symSize: 0x74 }
  - { offset: 0x1EE17, size: 0x8, addend: 0x0, symName: '__ZN79_$LT$pyo3..instance..Bound$LT$T$GT$$u20$as$u20$pyo3..conversion..ToPyObject$GT$9to_object17h3fed6802e65d9250E', symObjAddr: 0xF8B4, symBinAddr: 0x58CC, symSize: 0x28 }
  - { offset: 0x1EE69, size: 0x8, addend: 0x0, symName: '__ZN79_$LT$pyo3..instance..Bound$LT$T$GT$$u20$as$u20$pyo3..conversion..ToPyObject$GT$9to_object17ha19f0fc69478ecfdE', symObjAddr: 0xF954, symBinAddr: 0x58F4, symSize: 0x28 }
  - { offset: 0x1EECC, size: 0x8, addend: 0x0, symName: '__ZN196_$LT$$RF$pyo3..instance..Bound$LT$pyo3..types..module..PyModule$GT$$u20$as$u20$pyo3..impl_..pyfunction..WrapPyFunctionArg$LT$pyo3..instance..Bound$LT$pyo3..types..function..PyCFunction$GT$$GT$$GT$15wrap_pyfunction17h9f8f3256bee7489cE', symObjAddr: 0x655C, symBinAddr: 0x285C, symSize: 0x44 }
  - { offset: 0x1F1C1, size: 0x8, addend: 0x0, symName: '__ZN54_$LT$$RF$T$u20$as$u20$pyo3..conversion..ToPyObject$GT$9to_object17h2d5f0244b3e172a2E', symObjAddr: 0xD004, symBinAddr: 0x488C, symSize: 0x28 }
  - { offset: 0x1F213, size: 0x8, addend: 0x0, symName: '__ZN54_$LT$$RF$T$u20$as$u20$pyo3..conversion..ToPyObject$GT$9to_object17h3a7b290cc63b2de9E', symObjAddr: 0xD02C, symBinAddr: 0x48B4, symSize: 0x28 }
  - { offset: 0x1F7A3, size: 0x8, addend: 0x0, symName: '__ZN4pyo35types5bytes77_$LT$impl$u20$pyo3..instance..Borrowed$LT$pyo3..types..bytes..PyBytes$GT$$GT$8as_bytes17h6a2671e39076b69aE', symObjAddr: 0x6A30, symBinAddr: 0x2938, symSize: 0x9C }
  - { offset: 0x1F87C, size: 0x8, addend: 0x0, symName: '__ZN4pyo35types6string79_$LT$impl$u20$pyo3..instance..Borrowed$LT$pyo3..types..string..PyString$GT$$GT$15to_string_lossy17h1957e0b0ec1e6bfcE', symObjAddr: 0x7694, symBinAddr: 0x2A20, symSize: 0x178 }
  - { offset: 0x1F946, size: 0x8, addend: 0x0, symName: '__ZN4pyo35types6string79_$LT$impl$u20$pyo3..instance..Borrowed$LT$pyo3..types..string..PyString$GT$$GT$6to_cow17h393782261ba03ba3E', symObjAddr: 0x79D0, symBinAddr: 0x2B98, symSize: 0x3C }
  - { offset: 0x1F969, size: 0x8, addend: 0x0, symName: '__ZN4pyo35types6string79_$LT$impl$u20$pyo3..instance..Borrowed$LT$pyo3..types..string..PyString$GT$$GT$6to_str17h9e43ab229c6f9de7E', symObjAddr: 0x7A0C, symBinAddr: 0x2BD4, symSize: 0xCC }
  - { offset: 0x1FA0D, size: 0x8, addend: 0x0, symName: '__ZN4pyo38instance11Py$LT$T$GT$10into_bound17h0b1aff8db116a40bE', symObjAddr: 0x8B10, symBinAddr: 0x2CA0, symSize: 0x1C }
  - { offset: 0x1FA54, size: 0x8, addend: 0x0, symName: '__ZN4pyo38instance11Py$LT$T$GT$10into_bound17h90f6ac639953a268E', symObjAddr: 0x8B2C, symBinAddr: 0x2CBC, symSize: 0x1C }
  - { offset: 0x1FABB, size: 0x8, addend: 0x0, symName: '__ZN4pyo38instance11Py$LT$T$GT$13from_non_null17h5f99c3e38c45a922E', symObjAddr: 0x8CCC, symBinAddr: 0x2CD8, symSize: 0x14 }
  - { offset: 0x1FAE7, size: 0x8, addend: 0x0, symName: '__ZN4pyo38instance11Py$LT$T$GT$13from_non_null17h62b78c3aa8d56707E', symObjAddr: 0x8CF4, symBinAddr: 0x2CEC, symSize: 0x14 }
  - { offset: 0x1FB13, size: 0x8, addend: 0x0, symName: '__ZN4pyo38instance11Py$LT$T$GT$13from_non_null17h72774d6c77671939E', symObjAddr: 0x8D08, symBinAddr: 0x2D00, symSize: 0x14 }
  - { offset: 0x1FB3F, size: 0x8, addend: 0x0, symName: '__ZN4pyo38instance11Py$LT$T$GT$13from_non_null17ha22f5d465c8d0a86E', symObjAddr: 0x8D80, symBinAddr: 0x2D14, symSize: 0x14 }
  - { offset: 0x1FB6B, size: 0x8, addend: 0x0, symName: '__ZN4pyo38instance11Py$LT$T$GT$13from_non_null17ha807ff7a2ba8cf09E', symObjAddr: 0x8D94, symBinAddr: 0x2D28, symSize: 0x14 }
  - { offset: 0x1FB97, size: 0x8, addend: 0x0, symName: '__ZN4pyo38instance11Py$LT$T$GT$13from_non_null17hb095e63186cd4a30E', symObjAddr: 0x8DD0, symBinAddr: 0x2D3C, symSize: 0x14 }
  - { offset: 0x1FBC3, size: 0x8, addend: 0x0, symName: '__ZN4pyo38instance11Py$LT$T$GT$13from_non_null17hbfcc9f958159c4b9E', symObjAddr: 0x8DF8, symBinAddr: 0x2D50, symSize: 0x14 }
  - { offset: 0x1FC1A, size: 0x8, addend: 0x0, symName: '__ZN4pyo38instance11Py$LT$T$GT$14from_owned_ptr17h11c61629afc63ab5E', symObjAddr: 0x8E34, symBinAddr: 0x2D64, symSize: 0x50 }
  - { offset: 0x1FC61, size: 0x8, addend: 0x0, symName: '__ZN4pyo38instance11Py$LT$T$GT$14from_owned_ptr17h52080fe54ceea324E', symObjAddr: 0x8E84, symBinAddr: 0x2DB4, symSize: 0x50 }
  - { offset: 0x1FCA8, size: 0x8, addend: 0x0, symName: '__ZN4pyo38instance11Py$LT$T$GT$21from_owned_ptr_or_err17h12ba5e96c44a9781E', symObjAddr: 0x8F24, symBinAddr: 0x2E04, symSize: 0x88 }
  - { offset: 0x1FD0D, size: 0x8, addend: 0x0, symName: '__ZN4pyo38instance11Py$LT$T$GT$21from_owned_ptr_or_err17h698f242192befad8E', symObjAddr: 0x8FAC, symBinAddr: 0x2E8C, symSize: 0x88 }
  - { offset: 0x1FD72, size: 0x8, addend: 0x0, symName: '__ZN4pyo38instance11Py$LT$T$GT$21from_owned_ptr_or_err17h7812f6356f460cf8E', symObjAddr: 0x9034, symBinAddr: 0x2F14, symSize: 0x88 }
  - { offset: 0x1FDD7, size: 0x8, addend: 0x0, symName: '__ZN4pyo38instance11Py$LT$T$GT$21from_owned_ptr_or_opt17h8dc19a68d4d70a0cE', symObjAddr: 0x90BC, symBinAddr: 0x2F9C, symSize: 0x28 }
  - { offset: 0x1FE1E, size: 0x8, addend: 0x0, symName: '__ZN4pyo38instance11Py$LT$T$GT$21from_owned_ptr_or_opt17ha1273981c5378ff0E', symObjAddr: 0x90E4, symBinAddr: 0x2FC4, symSize: 0x28 }
  - { offset: 0x1FE65, size: 0x8, addend: 0x0, symName: '__ZN4pyo38instance11Py$LT$T$GT$21from_owned_ptr_or_opt17hbdc22330062c5355E', symObjAddr: 0x910C, symBinAddr: 0x2FEC, symSize: 0x28 }
  - { offset: 0x1FEAC, size: 0x8, addend: 0x0, symName: '__ZN4pyo38instance11Py$LT$T$GT$21from_owned_ptr_or_opt17he89adb452048e30aE', symObjAddr: 0x9134, symBinAddr: 0x3014, symSize: 0x28 }
  - { offset: 0x1FF00, size: 0x8, addend: 0x0, symName: '__ZN4pyo38instance11Py$LT$T$GT$4bind17h1bd5a7507895b3deE', symObjAddr: 0x91AC, symBinAddr: 0x308C, symSize: 0x74 }
  - { offset: 0x1FF61, size: 0x8, addend: 0x0, symName: '__ZN4pyo38instance11Py$LT$T$GT$4bind17h26d3384fc6cdf69fE', symObjAddr: 0x9220, symBinAddr: 0x3100, symSize: 0x74 }
  - { offset: 0x1FFC2, size: 0x8, addend: 0x0, symName: '__ZN4pyo38instance11Py$LT$T$GT$4bind17h3054d16b533d0755E', symObjAddr: 0x9294, symBinAddr: 0x3174, symSize: 0x74 }
  - { offset: 0x20023, size: 0x8, addend: 0x0, symName: '__ZN4pyo38instance11Py$LT$T$GT$4bind17h8b55ac54b116e215E', symObjAddr: 0x9308, symBinAddr: 0x31E8, symSize: 0x74 }
  - { offset: 0x2006A, size: 0x8, addend: 0x0, symName: '__ZN4pyo38instance11Py$LT$T$GT$4bind17ha80b3d404a4e9cdfE', symObjAddr: 0x937C, symBinAddr: 0x325C, symSize: 0x74 }
  - { offset: 0x200CB, size: 0x8, addend: 0x0, symName: '__ZN4pyo38instance11Py$LT$T$GT$4bind17hd16ef9fe03d04b41E', symObjAddr: 0x93F0, symBinAddr: 0x32D0, symSize: 0x74 }
  - { offset: 0x20112, size: 0x8, addend: 0x0, symName: '__ZN4pyo38instance11Py$LT$T$GT$6as_ptr17h1858379171ef1775E', symObjAddr: 0x94B8, symBinAddr: 0x3344, symSize: 0x1C }
  - { offset: 0x2013E, size: 0x8, addend: 0x0, symName: '__ZN4pyo38instance11Py$LT$T$GT$6as_ptr17h28de68a67d0e7704E', symObjAddr: 0x94D4, symBinAddr: 0x3360, symSize: 0x1C }
  - { offset: 0x20177, size: 0x8, addend: 0x0, symName: '__ZN4pyo38instance11Py$LT$T$GT$6as_ptr17h4598105a2881cdf9E', symObjAddr: 0x9544, symBinAddr: 0x337C, symSize: 0x1C }
  - { offset: 0x201A3, size: 0x8, addend: 0x0, symName: '__ZN4pyo38instance11Py$LT$T$GT$6as_ptr17h4f6b352a44e4a770E', symObjAddr: 0x957C, symBinAddr: 0x3398, symSize: 0x1C }
  - { offset: 0x201CF, size: 0x8, addend: 0x0, symName: '__ZN4pyo38instance11Py$LT$T$GT$6as_ptr17h8f00ac54b4fd4501E', symObjAddr: 0x9640, symBinAddr: 0x33B4, symSize: 0x1C }
  - { offset: 0x201FB, size: 0x8, addend: 0x0, symName: '__ZN4pyo38instance11Py$LT$T$GT$6as_ptr17hac513c2703f1b7edE', symObjAddr: 0x96E8, symBinAddr: 0x33D0, symSize: 0x1C }
  - { offset: 0x20227, size: 0x8, addend: 0x0, symName: '__ZN4pyo38instance11Py$LT$T$GT$6as_ptr17hb8caa983cce93ee5E', symObjAddr: 0x9704, symBinAddr: 0x33EC, symSize: 0x1C }
  - { offset: 0x20253, size: 0x8, addend: 0x0, symName: '__ZN4pyo38instance11Py$LT$T$GT$6as_ptr17hc4e2494ab3890ee9E', symObjAddr: 0x9758, symBinAddr: 0x3408, symSize: 0x1C }
  - { offset: 0x20299, size: 0x8, addend: 0x0, symName: '__ZN4pyo38instance11Py$LT$T$GT$6as_ptr17hf92fbe2c77e736d2E', symObjAddr: 0x97C8, symBinAddr: 0x3424, symSize: 0x1C }
  - { offset: 0x202C5, size: 0x8, addend: 0x0, symName: '__ZN4pyo38instance11Py$LT$T$GT$8into_any17h227f03403e74ccfeE', symObjAddr: 0x9820, symBinAddr: 0x3440, symSize: 0x3C }
  - { offset: 0x202F1, size: 0x8, addend: 0x0, symName: '__ZN4pyo38instance11Py$LT$T$GT$8into_any17h427a2b7729a86596E', symObjAddr: 0x9898, symBinAddr: 0x347C, symSize: 0x3C }
  - { offset: 0x2031D, size: 0x8, addend: 0x0, symName: '__ZN4pyo38instance11Py$LT$T$GT$8into_any17h4863bd91e73f251cE', symObjAddr: 0x98D4, symBinAddr: 0x34B8, symSize: 0x3C }
  - { offset: 0x20349, size: 0x8, addend: 0x0, symName: '__ZN4pyo38instance11Py$LT$T$GT$8into_any17h8f88df372035282cE', symObjAddr: 0x9A3C, symBinAddr: 0x34F4, symSize: 0x3C }
  - { offset: 0x20375, size: 0x8, addend: 0x0, symName: '__ZN4pyo38instance11Py$LT$T$GT$8into_any17hcc883d2c8c96df82E', symObjAddr: 0x9AF0, symBinAddr: 0x3530, symSize: 0x3C }
  - { offset: 0x203A1, size: 0x8, addend: 0x0, symName: '__ZN4pyo38instance11Py$LT$T$GT$8into_any17hcf857d797684be25E', symObjAddr: 0x9B2C, symBinAddr: 0x356C, symSize: 0x3C }
  - { offset: 0x203CD, size: 0x8, addend: 0x0, symName: '__ZN4pyo38instance11Py$LT$T$GT$8into_ptr17h33b864cad4cac748E', symObjAddr: 0x9C1C, symBinAddr: 0x35A8, symSize: 0x30 }
  - { offset: 0x203F9, size: 0x8, addend: 0x0, symName: '__ZN4pyo38instance11Py$LT$T$GT$8into_ptr17h58391eb92c9dc405E', symObjAddr: 0x9C4C, symBinAddr: 0x35D8, symSize: 0x30 }
  - { offset: 0x20425, size: 0x8, addend: 0x0, symName: '__ZN4pyo38instance11Py$LT$T$GT$8into_ptr17h7fbe815998939931E', symObjAddr: 0x9C7C, symBinAddr: 0x3608, symSize: 0x30 }
  - { offset: 0x20451, size: 0x8, addend: 0x0, symName: '__ZN4pyo38instance11Py$LT$T$GT$8into_ptr17he7353185ab65643bE', symObjAddr: 0x9CAC, symBinAddr: 0x3638, symSize: 0x30 }
  - { offset: 0x2047D, size: 0x8, addend: 0x0, symName: '__ZN4pyo38instance11Py$LT$T$GT$9clone_ref17h1db8fe936e2a6a79E', symObjAddr: 0x9CDC, symBinAddr: 0x3668, symSize: 0xF8 }
  - { offset: 0x204E2, size: 0x8, addend: 0x0, symName: '__ZN4pyo38instance11Py$LT$T$GT$9clone_ref17h3c66eb593b279eb9E', symObjAddr: 0xA0BC, symBinAddr: 0x3760, symSize: 0xF8 }
  - { offset: 0x20547, size: 0x8, addend: 0x0, symName: '__ZN4pyo38instance11Py$LT$T$GT$9clone_ref17h8a09a226602dd8cfE', symObjAddr: 0xA784, symBinAddr: 0x3858, symSize: 0xF8 }
  - { offset: 0x205AC, size: 0x8, addend: 0x0, symName: '__ZN4pyo38instance11Py$LT$T$GT$9clone_ref17hcd1ba0485bbbc234E', symObjAddr: 0xAA6C, symBinAddr: 0x3950, symSize: 0xF8 }
  - { offset: 0x20611, size: 0x8, addend: 0x0, symName: '__ZN4pyo38instance11Py$LT$T$GT$9clone_ref17hebd985cd5c2cee98E', symObjAddr: 0xAB64, symBinAddr: 0x3A48, symSize: 0xF8 }
  - { offset: 0x20676, size: 0x8, addend: 0x0, symName: '__ZN4pyo38instance11Py$LT$T$GT$9clone_ref17hfaa6d9b036ee1eedE', symObjAddr: 0xAC5C, symBinAddr: 0x3B40, symSize: 0xF8 }
  - { offset: 0x206E8, size: 0x8, addend: 0x0, symName: '__ZN4pyo38instance14Bound$LT$T$GT$11as_borrowed17h666bdee93a186295E', symObjAddr: 0xB084, symBinAddr: 0x3F20, symSize: 0x48 }
  - { offset: 0x20721, size: 0x8, addend: 0x0, symName: '__ZN4pyo38instance14Bound$LT$T$GT$11as_borrowed17ha130710f17f08368E', symObjAddr: 0xB114, symBinAddr: 0x3F68, symSize: 0x48 }
  - { offset: 0x2074D, size: 0x8, addend: 0x0, symName: '__ZN4pyo38instance14Bound$LT$T$GT$2py17h034259a8b3d5a958E', symObjAddr: 0xB234, symBinAddr: 0x3FB0, symSize: 0x10 }
  - { offset: 0x20786, size: 0x8, addend: 0x0, symName: '__ZN4pyo38instance14Bound$LT$T$GT$2py17h801da986a657ef9cE', symObjAddr: 0xB2D4, symBinAddr: 0x3FC0, symSize: 0x10 }
  - { offset: 0x207B2, size: 0x8, addend: 0x0, symName: '__ZN4pyo38instance14Bound$LT$T$GT$2py17hca0e165a1d954794E', symObjAddr: 0xB334, symBinAddr: 0x3FD0, symSize: 0x10 }
  - { offset: 0x207DE, size: 0x8, addend: 0x0, symName: '__ZN4pyo38instance14Bound$LT$T$GT$2py17hd3cdb873fa286377E', symObjAddr: 0xB354, symBinAddr: 0x3FE0, symSize: 0x10 }
  - { offset: 0x2080A, size: 0x8, addend: 0x0, symName: '__ZN4pyo38instance14Bound$LT$T$GT$2py17hda48e830db8318e0E', symObjAddr: 0xB384, symBinAddr: 0x3FF0, symSize: 0x10 }
  - { offset: 0x20836, size: 0x8, addend: 0x0, symName: '__ZN4pyo38instance14Bound$LT$T$GT$2py17hfbee39fa069babc8E', symObjAddr: 0xB3A4, symBinAddr: 0x4000, symSize: 0x10 }
  - { offset: 0x20862, size: 0x8, addend: 0x0, symName: '__ZN4pyo38instance14Bound$LT$T$GT$6as_any17h01f8430d95b4f5b7E', symObjAddr: 0xB3C4, symBinAddr: 0x4010, symSize: 0x74 }
  - { offset: 0x2089B, size: 0x8, addend: 0x0, symName: '__ZN4pyo38instance14Bound$LT$T$GT$6as_any17h22d0b6d406d81e17E', symObjAddr: 0xB438, symBinAddr: 0x4084, symSize: 0x74 }
  - { offset: 0x208C7, size: 0x8, addend: 0x0, symName: '__ZN4pyo38instance14Bound$LT$T$GT$6as_any17h4bd75f976275a231E', symObjAddr: 0xB520, symBinAddr: 0x40F8, symSize: 0x74 }
  - { offset: 0x208F3, size: 0x8, addend: 0x0, symName: '__ZN4pyo38instance14Bound$LT$T$GT$6as_any17h5bce316491a02797E', symObjAddr: 0xB608, symBinAddr: 0x416C, symSize: 0x74 }
  - { offset: 0x2091F, size: 0x8, addend: 0x0, symName: '__ZN4pyo38instance14Bound$LT$T$GT$6as_any17h683651147dad9a5dE', symObjAddr: 0xB67C, symBinAddr: 0x41E0, symSize: 0x74 }
  - { offset: 0x2094B, size: 0x8, addend: 0x0, symName: '__ZN4pyo38instance14Bound$LT$T$GT$6as_any17hdffbbce9b5575c7bE', symObjAddr: 0xB9A8, symBinAddr: 0x4254, symSize: 0x74 }
  - { offset: 0x20977, size: 0x8, addend: 0x0, symName: '__ZN4pyo38instance14Bound$LT$T$GT$6as_ptr17h3d4dc2f416d2427aE', symObjAddr: 0xBB24, symBinAddr: 0x42C8, symSize: 0x2C }
  - { offset: 0x209A3, size: 0x8, addend: 0x0, symName: '__ZN4pyo38instance14Bound$LT$T$GT$6as_ptr17h4671ac31d3b6a2b6E', symObjAddr: 0xBB7C, symBinAddr: 0x42F4, symSize: 0x2C }
  - { offset: 0x209CF, size: 0x8, addend: 0x0, symName: '__ZN4pyo38instance14Bound$LT$T$GT$6as_ptr17h48d366526bcc5c8cE', symObjAddr: 0xBBA8, symBinAddr: 0x4320, symSize: 0x2C }
  - { offset: 0x209FB, size: 0x8, addend: 0x0, symName: '__ZN4pyo38instance14Bound$LT$T$GT$6as_ptr17h74ae91678be0111fE', symObjAddr: 0xBC84, symBinAddr: 0x434C, symSize: 0x2C }
  - { offset: 0x20A27, size: 0x8, addend: 0x0, symName: '__ZN4pyo38instance14Bound$LT$T$GT$6as_ptr17h81db867eafdc42b5E', symObjAddr: 0xBCDC, symBinAddr: 0x4378, symSize: 0x2C }
  - { offset: 0x20A53, size: 0x8, addend: 0x0, symName: '__ZN4pyo38instance14Bound$LT$T$GT$6as_ptr17h834ee3d6b514ea96E', symObjAddr: 0xBD08, symBinAddr: 0x43A4, symSize: 0x2C }
  - { offset: 0x20A7F, size: 0x8, addend: 0x0, symName: '__ZN4pyo38instance14Bound$LT$T$GT$6as_ptr17h84f51031b9de23b0E', symObjAddr: 0xBD60, symBinAddr: 0x43D0, symSize: 0x2C }
  - { offset: 0x20AAB, size: 0x8, addend: 0x0, symName: '__ZN4pyo38instance14Bound$LT$T$GT$6as_ptr17ha071a86217ff5618E', symObjAddr: 0xBD8C, symBinAddr: 0x43FC, symSize: 0x2C }
  - { offset: 0x20AD7, size: 0x8, addend: 0x0, symName: '__ZN4pyo38instance14Bound$LT$T$GT$6as_ptr17hd7f134b7b825980aE', symObjAddr: 0xBE68, symBinAddr: 0x4428, symSize: 0x2C }
  - { offset: 0x20B03, size: 0x8, addend: 0x0, symName: '__ZN4pyo38instance14Bound$LT$T$GT$6unbind17h69fbd4f41ca8746dE', symObjAddr: 0xC1F8, symBinAddr: 0x4454, symSize: 0x48 }
  - { offset: 0x20B4D, size: 0x8, addend: 0x0, symName: '__ZN4pyo38instance14Bound$LT$T$GT$6unbind17h729a00353ee39637E', symObjAddr: 0xC240, symBinAddr: 0x449C, symSize: 0x48 }
  - { offset: 0x20B97, size: 0x8, addend: 0x0, symName: '__ZN4pyo38instance14Bound$LT$T$GT$6unbind17h97ca26735da9ed61E', symObjAddr: 0xC2D0, symBinAddr: 0x44E4, symSize: 0x48 }
  - { offset: 0x20BE1, size: 0x8, addend: 0x0, symName: '__ZN4pyo38instance14Bound$LT$T$GT$6unbind17hac8afa8646950e78E', symObjAddr: 0xC318, symBinAddr: 0x452C, symSize: 0x48 }
  - { offset: 0x20C2B, size: 0x8, addend: 0x0, symName: '__ZN4pyo38instance14Bound$LT$T$GT$6unbind17hffe4f6e78bf09960E', symObjAddr: 0xC438, symBinAddr: 0x4574, symSize: 0x48 }
  - { offset: 0x20C75, size: 0x8, addend: 0x0, symName: '__ZN4pyo38instance14Bound$LT$T$GT$8into_any17h2e961e484fd26fdcE', symObjAddr: 0xC4E0, symBinAddr: 0x45BC, symSize: 0x30 }
  - { offset: 0x20CA1, size: 0x8, addend: 0x0, symName: '__ZN4pyo38instance14Bound$LT$T$GT$8into_any17h609853a87e838a93E', symObjAddr: 0xC570, symBinAddr: 0x45EC, symSize: 0x30 }
  - { offset: 0x20CCD, size: 0x8, addend: 0x0, symName: '__ZN4pyo38instance14Bound$LT$T$GT$8into_any17h8b1440323a53e400E', symObjAddr: 0xC5D0, symBinAddr: 0x461C, symSize: 0x30 }
  - { offset: 0x20CF9, size: 0x8, addend: 0x0, symName: '__ZN4pyo38instance14Bound$LT$T$GT$8into_any17h8b87ceaf01e8a41bE', symObjAddr: 0xC600, symBinAddr: 0x464C, symSize: 0x30 }
  - { offset: 0x20D25, size: 0x8, addend: 0x0, symName: '__ZN4pyo38instance14Bound$LT$T$GT$8into_any17hec208af6905e2f69E', symObjAddr: 0xC750, symBinAddr: 0x467C, symSize: 0x30 }
  - { offset: 0x20D51, size: 0x8, addend: 0x0, symName: '__ZN4pyo38instance17Borrowed$LT$T$GT$8to_owned17h2e375ce3ac0ea7b7E', symObjAddr: 0xC7F0, symBinAddr: 0x46AC, symSize: 0x2C }
  - { offset: 0x20D7D, size: 0x8, addend: 0x0, symName: '__ZN4pyo38instance17Borrowed$LT$T$GT$8to_owned17hee18164e2f275239E', symObjAddr: 0xC874, symBinAddr: 0x46D8, symSize: 0x2C }
  - { offset: 0x20DB6, size: 0x8, addend: 0x0, symName: '__ZN4pyo38instance36Bound$LT$pyo3..types..any..PyAny$GT$14from_owned_ptr17h9aff3b888a3b7d4fE', symObjAddr: 0xC914, symBinAddr: 0x4704, symSize: 0x2C }
  - { offset: 0x20DFE, size: 0x8, addend: 0x0, symName: '__ZN4pyo38instance36Bound$LT$pyo3..types..any..PyAny$GT$21from_owned_ptr_or_err17h1b6a0bb43086995bE', symObjAddr: 0xC9B4, symBinAddr: 0x4730, symSize: 0x40 }
  - { offset: 0x20E39, size: 0x8, addend: 0x0, symName: '__ZN4pyo38instance39Borrowed$LT$pyo3..types..any..PyAny$GT$18downcast_unchecked17h3c6c74ccd3c62ee7E', symObjAddr: 0xCB14, symBinAddr: 0x4798, symSize: 0x14 }
  - { offset: 0x20E65, size: 0x8, addend: 0x0, symName: '__ZN4pyo38instance39Borrowed$LT$pyo3..types..any..PyAny$GT$18from_ptr_unchecked17h57dda625212546f8E', symObjAddr: 0xCB78, symBinAddr: 0x47AC, symSize: 0x2C }
  - { offset: 0x2202E, size: 0x8, addend: 0x0, symName: '__ZN153_$LT$core..result..Result$LT$T$C$F$GT$$u20$as$u20$core..ops..try_trait..FromResidual$LT$core..result..Result$LT$core..convert..Infallible$C$E$GT$$GT$$GT$13from_residual17h329c6740467580e4E', symObjAddr: 0xA20, symBinAddr: 0x599C, symSize: 0x48 }
  - { offset: 0x220B3, size: 0x8, addend: 0x0, symName: '__ZN153_$LT$core..result..Result$LT$T$C$F$GT$$u20$as$u20$core..ops..try_trait..FromResidual$LT$core..result..Result$LT$core..convert..Infallible$C$E$GT$$GT$$GT$13from_residual17h57d1531c60c060b9E', symObjAddr: 0xF28, symBinAddr: 0x59E4, symSize: 0x48 }
  - { offset: 0x22138, size: 0x8, addend: 0x0, symName: '__ZN153_$LT$core..result..Result$LT$T$C$F$GT$$u20$as$u20$core..ops..try_trait..FromResidual$LT$core..result..Result$LT$core..convert..Infallible$C$E$GT$$GT$$GT$13from_residual17h5a0a7bc99f23a2c3E', symObjAddr: 0x1000, symBinAddr: 0x5A2C, symSize: 0x48 }
  - { offset: 0x221BD, size: 0x8, addend: 0x0, symName: '__ZN153_$LT$core..result..Result$LT$T$C$F$GT$$u20$as$u20$core..ops..try_trait..FromResidual$LT$core..result..Result$LT$core..convert..Infallible$C$E$GT$$GT$$GT$13from_residual17h635e40b18939c20fE', symObjAddr: 0x1188, symBinAddr: 0x5A74, symSize: 0x48 }
  - { offset: 0x22242, size: 0x8, addend: 0x0, symName: '__ZN153_$LT$core..result..Result$LT$T$C$F$GT$$u20$as$u20$core..ops..try_trait..FromResidual$LT$core..result..Result$LT$core..convert..Infallible$C$E$GT$$GT$$GT$13from_residual17h7ae353c84945128eE', symObjAddr: 0x13A8, symBinAddr: 0x5ABC, symSize: 0x48 }
  - { offset: 0x222C7, size: 0x8, addend: 0x0, symName: '__ZN153_$LT$core..result..Result$LT$T$C$F$GT$$u20$as$u20$core..ops..try_trait..FromResidual$LT$core..result..Result$LT$core..convert..Infallible$C$E$GT$$GT$$GT$13from_residual17h8180e53b21e04539E', symObjAddr: 0x1480, symBinAddr: 0x5B04, symSize: 0x58 }
  - { offset: 0x2232F, size: 0x8, addend: 0x0, symName: '__ZN153_$LT$core..result..Result$LT$T$C$F$GT$$u20$as$u20$core..ops..try_trait..FromResidual$LT$core..result..Result$LT$core..convert..Infallible$C$E$GT$$GT$$GT$13from_residual17hf73556bf0db02833E', symObjAddr: 0x1C98, symBinAddr: 0x5B5C, symSize: 0x48 }
  - { offset: 0x2440A, size: 0x8, addend: 0x0, symName: '__ZN79_$LT$core..result..Result$LT$T$C$E$GT$$u20$as$u20$core..ops..try_trait..Try$GT$6branch17h0b134e483fb4f047E', symObjAddr: 0x509C, symBinAddr: 0x639C, symSize: 0x28 }
  - { offset: 0x24468, size: 0x8, addend: 0x0, symName: '__ZN79_$LT$core..result..Result$LT$T$C$E$GT$$u20$as$u20$core..ops..try_trait..Try$GT$6branch17h2ff3312893bb0018E', symObjAddr: 0x53D4, symBinAddr: 0x63C4, symSize: 0x88 }
  - { offset: 0x244E6, size: 0x8, addend: 0x0, symName: '__ZN79_$LT$core..result..Result$LT$T$C$E$GT$$u20$as$u20$core..ops..try_trait..Try$GT$6branch17h356d8a2f25bda87fE', symObjAddr: 0x5544, symBinAddr: 0x644C, symSize: 0x80 }
  - { offset: 0x24564, size: 0x8, addend: 0x0, symName: '__ZN79_$LT$core..result..Result$LT$T$C$E$GT$$u20$as$u20$core..ops..try_trait..Try$GT$6branch17h413e952dbbdaf566E', symObjAddr: 0x574C, symBinAddr: 0x64CC, symSize: 0x80 }
  - { offset: 0x245E2, size: 0x8, addend: 0x0, symName: '__ZN79_$LT$core..result..Result$LT$T$C$E$GT$$u20$as$u20$core..ops..try_trait..Try$GT$6branch17h48e04fc43a989388E', symObjAddr: 0x58EC, symBinAddr: 0x654C, symSize: 0x80 }
  - { offset: 0x24660, size: 0x8, addend: 0x0, symName: '__ZN79_$LT$core..result..Result$LT$T$C$E$GT$$u20$as$u20$core..ops..try_trait..Try$GT$6branch17h7b2c26911ec34332E', symObjAddr: 0x5B94, symBinAddr: 0x65CC, symSize: 0x80 }
  - { offset: 0x246DE, size: 0x8, addend: 0x0, symName: '__ZN79_$LT$core..result..Result$LT$T$C$E$GT$$u20$as$u20$core..ops..try_trait..Try$GT$6branch17h99f082d8910192daE', symObjAddr: 0x6004, symBinAddr: 0x664C, symSize: 0x80 }
  - { offset: 0x2475C, size: 0x8, addend: 0x0, symName: '__ZN79_$LT$core..result..Result$LT$T$C$E$GT$$u20$as$u20$core..ops..try_trait..Try$GT$6branch17hae664811a791bf3fE', symObjAddr: 0x621C, symBinAddr: 0x66CC, symSize: 0x70 }
  - { offset: 0x247DA, size: 0x8, addend: 0x0, symName: '__ZN79_$LT$core..result..Result$LT$T$C$E$GT$$u20$as$u20$core..ops..try_trait..Try$GT$6branch17hc35f4fe453984a8eE', symObjAddr: 0x628C, symBinAddr: 0x673C, symSize: 0x28 }
  - { offset: 0x24838, size: 0x8, addend: 0x0, symName: '__ZN79_$LT$core..result..Result$LT$T$C$E$GT$$u20$as$u20$core..ops..try_trait..Try$GT$6branch17hf24fdf360cc03962E', symObjAddr: 0x6828, symBinAddr: 0x6764, symSize: 0x14 }
  - { offset: 0x260A0, size: 0x8, addend: 0x0, symName: '__ZN152_$LT$core..result..Result$LT$pyo3..instance..Bound$LT$pyo3..types..any..PyAny$GT$$C$pyo3..err..PyErr$GT$$u20$as$u20$pyo3..py_result_ext..PyResultExt$GT$23downcast_into_unchecked17hcf0b3fa1d1e0fba0E', symObjAddr: 0x3C0, symBinAddr: 0x591C, symSize: 0x40 }
  - { offset: 0x260D6, size: 0x8, addend: 0x0, symName: '__ZN152_$LT$core..result..Result$LT$pyo3..instance..Bound$LT$pyo3..types..any..PyAny$GT$$C$pyo3..err..PyErr$GT$$u20$as$u20$pyo3..py_result_ext..PyResultExt$GT$23downcast_into_unchecked17hdae67cb5b6db4719E', symObjAddr: 0x440, symBinAddr: 0x595C, symSize: 0x40 }
  - { offset: 0x26FB8, size: 0x8, addend: 0x0, symName: '__ZN4core6result19Result$LT$T$C$E$GT$2ok17h0305380d963b8edfE', symObjAddr: 0x1E70, symBinAddr: 0x5BA4, symSize: 0x64 }
  - { offset: 0x2700C, size: 0x8, addend: 0x0, symName: '__ZN4core6result19Result$LT$T$C$E$GT$3map17h09b01b38226165f1E', symObjAddr: 0x1ED4, symBinAddr: 0x5C08, symSize: 0x80 }
  - { offset: 0x270E3, size: 0x8, addend: 0x0, symName: '__ZN4core6result19Result$LT$T$C$E$GT$3map17h9602bacd7f89532fE', symObjAddr: 0x297C, symBinAddr: 0x5C88, symSize: 0x8C }
  - { offset: 0x2718E, size: 0x8, addend: 0x0, symName: '__ZN4core6result19Result$LT$T$C$E$GT$3map17h9f9c4848356507bfE', symObjAddr: 0x2A08, symBinAddr: 0x5D14, symSize: 0x98 }
  - { offset: 0x2722E, size: 0x8, addend: 0x0, symName: '__ZN4core6result19Result$LT$T$C$E$GT$3map17hac44aff691774942E', symObjAddr: 0x2AA0, symBinAddr: 0x5DAC, symSize: 0x8C }
  - { offset: 0x272C1, size: 0x8, addend: 0x0, symName: '__ZN4core6result19Result$LT$T$C$E$GT$3map17he941e523fd294ee8E', symObjAddr: 0x2C2C, symBinAddr: 0x5E38, symSize: 0x80 }
  - { offset: 0x27372, size: 0x8, addend: 0x0, symName: '__ZN4core6result19Result$LT$T$C$E$GT$6expect17h021338fcd229a50eE', symObjAddr: 0x2D38, symBinAddr: 0x5EB8, symSize: 0xBC }
  - { offset: 0x273D5, size: 0x8, addend: 0x0, symName: '__ZN4core6result19Result$LT$T$C$E$GT$6expect17h68673dab405b4f85E', symObjAddr: 0x321C, symBinAddr: 0x5F74, symSize: 0x9C }
  - { offset: 0x2743F, size: 0x8, addend: 0x0, symName: '__ZN4core6result19Result$LT$T$C$E$GT$6expect17ha6b45ec031946494E', symObjAddr: 0x3408, symBinAddr: 0x6010, symSize: 0xA8 }
  - { offset: 0x274A2, size: 0x8, addend: 0x0, symName: '__ZN4core6result19Result$LT$T$C$E$GT$6expect17hb7296ac0fdf74596E', symObjAddr: 0x34B0, symBinAddr: 0x60B8, symSize: 0x84 }
  - { offset: 0x27529, size: 0x8, addend: 0x0, symName: '__ZN4core6result19Result$LT$T$C$E$GT$7map_err17h060ebbbefb1b3bfcE', symObjAddr: 0x3924, symBinAddr: 0x613C, symSize: 0xA4 }
  - { offset: 0x275F7, size: 0x8, addend: 0x0, symName: '__ZN4core6result19Result$LT$T$C$E$GT$7map_err17hfd7c436105d0862bE', symObjAddr: 0x49F4, symBinAddr: 0x61E0, symSize: 0x88 }
  - { offset: 0x276A4, size: 0x8, addend: 0x0, symName: '__ZN4core6result19Result$LT$T$C$E$GT$9unwrap_or17h5ddf7994b6e93687E', symObjAddr: 0x4E3C, symBinAddr: 0x6268, symSize: 0x70 }
  - { offset: 0x276E8, size: 0x8, addend: 0x0, symName: '__ZN4core6result19Result$LT$T$C$E$GT$9unwrap_or17ha9714381bcde144fE', symObjAddr: 0x4EAC, symBinAddr: 0x62D8, symSize: 0xC4 }
  - { offset: 0x27BFD, size: 0x8, addend: 0x0, symName: '__ZN4core3ptr101drop_in_place$LT$std..sys..sync..once_box..OnceBox$LT$std..sys..pal..unix..sync..mutex..Mutex$GT$$GT$17he38aada0326396e6E', symObjAddr: 0x2244, symBinAddr: 0x6E34, symSize: 0x24 }
  - { offset: 0x27C2C, size: 0x8, addend: 0x0, symName: '__ZN4core3ptr104drop_in_place$LT$core..option..Option$LT$pyo3..instance..Py$LT$pyo3..types..module..PyModule$GT$$GT$$GT$17h8070e2826705b6c9E', symObjAddr: 0x22B0, symBinAddr: 0x6E58, symSize: 0x44 }
  - { offset: 0x27C5B, size: 0x8, addend: 0x0, symName: '__ZN4core3ptr104drop_in_place$LT$core..option..Option$LT$pyo3..instance..Py$LT$pyo3..types..string..PyString$GT$$GT$$GT$17h712fc83ab5a8abfaE', symObjAddr: 0x22F4, symBinAddr: 0x6E9C, symSize: 0x44 }
  - { offset: 0x27C8A, size: 0x8, addend: 0x0, symName: '__ZN4core3ptr106drop_in_place$LT$alloc..vec..Vec$LT$core..ptr..non_null..NonNull$LT$pyo3_ffi..object..PyObject$GT$$GT$$GT$17h1cb1bd479f2f7a53E', symObjAddr: 0x235C, symBinAddr: 0x6EE0, symSize: 0x5C }
  - { offset: 0x27CB9, size: 0x8, addend: 0x0, symName: '__ZN4core3ptr106drop_in_place$LT$core..option..Option$LT$pyo3..instance..Py$LT$pyo3..types..typeobject..PyType$GT$$GT$$GT$17h18c3b0d49eddbd41E', symObjAddr: 0x23B8, symBinAddr: 0x6F3C, symSize: 0x44 }
  - { offset: 0x27CE8, size: 0x8, addend: 0x0, symName: '__ZN4core3ptr107drop_in_place$LT$core..pin..Pin$LT$alloc..boxed..Box$LT$std..sys..pal..unix..sync..mutex..Mutex$GT$$GT$$GT$17hae61faf73e57ae80E', symObjAddr: 0x2420, symBinAddr: 0x6F80, symSize: 0x24 }
  - { offset: 0x27D17, size: 0x8, addend: 0x0, symName: '__ZN4core3ptr110drop_in_place$LT$core..option..Option$LT$pyo3..instance..Py$LT$pyo3..types..traceback..PyTraceback$GT$$GT$$GT$17hc00355d22c0ab5c4E', symObjAddr: 0x2554, symBinAddr: 0x6FA4, symSize: 0x44 }
  - { offset: 0x27D46, size: 0x8, addend: 0x0, symName: '__ZN4core3ptr111drop_in_place$LT$core..cell..UnsafeCell$LT$core..option..Option$LT$pyo3..err..err_state..PyErrState$GT$$GT$$GT$17h6da2ed503e990a92E', symObjAddr: 0x2598, symBinAddr: 0x6FE8, symSize: 0x24 }
  - { offset: 0x27D75, size: 0x8, addend: 0x0, symName: '__ZN4core3ptr113drop_in_place$LT$alloc..raw_vec..RawVec$LT$core..ptr..non_null..NonNull$LT$pyo3_ffi..object..PyObject$GT$$GT$$GT$17h0a3e5e895d2a29eeE', symObjAddr: 0x2604, symBinAddr: 0x700C, symSize: 0x24 }
  - { offset: 0x27DA4, size: 0x8, addend: 0x0, symName: '__ZN4core3ptr113drop_in_place$LT$core..option..Option$LT$pyo3..instance..Bound$LT$pyo3..types..traceback..PyTraceback$GT$$GT$$GT$17hb279389a56585ed0E', symObjAddr: 0x2628, symBinAddr: 0x7030, symSize: 0x44 }
  - { offset: 0x27DD3, size: 0x8, addend: 0x0, symName: '__ZN4core3ptr115drop_in_place$LT$core..array..iter..IntoIter$LT$pyo3..instance..Py$LT$pyo3..types..any..PyAny$GT$$C$1_usize$GT$$GT$17h66722426d32c111dE', symObjAddr: 0x2690, symBinAddr: 0x7074, symSize: 0x24 }
  - { offset: 0x27E02, size: 0x8, addend: 0x0, symName: '__ZN4core3ptr115drop_in_place$LT$core..result..Result$LT$$LP$$RP$$C$pyo3..instance..Py$LT$pyo3..types..module..PyModule$GT$$GT$$GT$17h98befb1df752b1c0E', symObjAddr: 0x26D8, symBinAddr: 0x7098, symSize: 0x44 }
  - { offset: 0x27E31, size: 0x8, addend: 0x0, symName: '__ZN4core3ptr115drop_in_place$LT$core..result..Result$LT$$LP$$RP$$C$pyo3..instance..Py$LT$pyo3..types..string..PyString$GT$$GT$$GT$17hb6b833abb8381645E', symObjAddr: 0x271C, symBinAddr: 0x70DC, symSize: 0x44 }
  - { offset: 0x27E60, size: 0x8, addend: 0x0, symName: '__ZN4core3ptr117drop_in_place$LT$core..result..Result$LT$$LP$$RP$$C$pyo3..instance..Py$LT$pyo3..types..typeobject..PyType$GT$$GT$$GT$17h57462113e45c113fE', symObjAddr: 0x2824, symBinAddr: 0x7120, symSize: 0x44 }
  - { offset: 0x27E8F, size: 0x8, addend: 0x0, symName: '__ZN4core3ptr122drop_in_place$LT$alloc..vec..into_iter..IntoIter$LT$core..ptr..non_null..NonNull$LT$pyo3_ffi..object..PyObject$GT$$GT$$GT$17hb0f12b62d5ef1131E', symObjAddr: 0x2938, symBinAddr: 0x7164, symSize: 0x24 }
  - { offset: 0x27EBE, size: 0x8, addend: 0x0, symName: '__ZN4core3ptr126drop_in_place$LT$core..result..Result$LT$pyo3..instance..Bound$LT$pyo3..types..string..PyString$GT$$C$pyo3..err..PyErr$GT$$GT$17hfb51fa4ca0c6d97cE', symObjAddr: 0x29BC, symBinAddr: 0x7188, symSize: 0x50 }
  - { offset: 0x27EED, size: 0x8, addend: 0x0, symName: '__ZN4core3ptr135drop_in_place$LT$core..option..Option$LT$core..pin..Pin$LT$alloc..boxed..Box$LT$std..sys..pal..unix..sync..mutex..Mutex$GT$$GT$$GT$$GT$17h59074747796502a5E', symObjAddr: 0x2B88, symBinAddr: 0x71D8, symSize: 0x44 }
  - { offset: 0x27F1C, size: 0x8, addend: 0x0, symName: '__ZN4core3ptr136drop_in_place$LT$core..cell..UnsafeCell$LT$alloc..vec..Vec$LT$core..ptr..non_null..NonNull$LT$pyo3_ffi..object..PyObject$GT$$GT$$GT$$GT$17h18333a5c90be33f4E', symObjAddr: 0x2C5C, symBinAddr: 0x721C, symSize: 0x24 }
  - { offset: 0x27F4B, size: 0x8, addend: 0x0, symName: '__ZN4core3ptr141drop_in_place$LT$pyo3..err..PyErr..new$LT$pyo3..panic..PanicException$C$$LP$alloc..string..String$C$$RP$$GT$..$u7b$$u7b$closure$u7d$$u7d$$GT$17hf38bfc26b28241beE', symObjAddr: 0x2E9C, symBinAddr: 0x7240, symSize: 0x24 }
  - { offset: 0x27F7A, size: 0x8, addend: 0x0, symName: '__ZN4core3ptr145drop_in_place$LT$std..sync..poison..mutex..Mutex$LT$alloc..vec..Vec$LT$core..ptr..non_null..NonNull$LT$pyo3_ffi..object..PyObject$GT$$GT$$GT$$GT$17h654b7515320ea2fdE', symObjAddr: 0x2FF8, symBinAddr: 0x7264, symSize: 0x60 }
  - { offset: 0x27FA9, size: 0x8, addend: 0x0, symName: '__ZN4core3ptr146drop_in_place$LT$pyo3..err..PyErr..new$LT$pyo3..exceptions..PyTypeError$C$pyo3..err..PyDowncastErrorArguments$GT$..$u7b$$u7b$closure$u7d$$u7d$$GT$17h0dcc670af46e8617E', symObjAddr: 0x307C, symBinAddr: 0x72C4, symSize: 0x24 }
  - { offset: 0x27FD8, size: 0x8, addend: 0x0, symName: '__ZN4core3ptr150drop_in_place$LT$std..sync..poison..mutex..MutexGuard$LT$alloc..vec..Vec$LT$core..ptr..non_null..NonNull$LT$pyo3_ffi..object..PyObject$GT$$GT$$GT$$GT$17h6b54db28b81802c3E', symObjAddr: 0x30C4, symBinAddr: 0x72E8, symSize: 0x24 }
  - { offset: 0x28007, size: 0x8, addend: 0x0, symName: '__ZN4core3ptr165drop_in_place$LT$core..iter..adapters..enumerate..Enumerate$LT$core..array..iter..IntoIter$LT$pyo3..instance..Py$LT$pyo3..types..any..PyAny$GT$$C$1_usize$GT$$GT$$GT$17h6ad160175110d445E', symObjAddr: 0x310C, symBinAddr: 0x730C, symSize: 0x24 }
  - { offset: 0x28036, size: 0x8, addend: 0x0, symName: '__ZN4core3ptr188drop_in_place$LT$std..sync..poison..PoisonError$LT$std..sync..poison..mutex..MutexGuard$LT$alloc..vec..Vec$LT$core..ptr..non_null..NonNull$LT$pyo3_ffi..object..PyObject$GT$$GT$$GT$$GT$$GT$17h3f58201151455f95E', symObjAddr: 0x319C, symBinAddr: 0x7330, symSize: 0x24 }
  - { offset: 0x28065, size: 0x8, addend: 0x0, symName: '__ZN4core3ptr189drop_in_place$LT$core..array..iter..iter_inner..PolymorphicIter$LT$$u5b$core..mem..maybe_uninit..MaybeUninit$LT$pyo3..instance..Py$LT$pyo3..types..any..PyAny$GT$$GT$$u3b$$u20$1$u5d$$GT$$GT$17h3d5b207a2ad52fc5E', symObjAddr: 0x31C0, symBinAddr: 0x7354, symSize: 0x24 }
  - { offset: 0x28094, size: 0x8, addend: 0x0, symName: '__ZN4core3ptr216drop_in_place$LT$$LT$alloc..vec..into_iter..IntoIter$LT$T$C$A$GT$$u20$as$u20$core..ops..drop..Drop$GT$..drop..DropGuard$LT$core..ptr..non_null..NonNull$LT$pyo3_ffi..object..PyObject$GT$$C$alloc..alloc..Global$GT$$GT$17h407526d387225062E', symObjAddr: 0x32BC, symBinAddr: 0x7378, symSize: 0x24 }
  - { offset: 0x280C3, size: 0x8, addend: 0x0, symName: '__ZN4core3ptr236drop_in_place$LT$alloc..boxed..Box$LT$dyn$u20$core..ops..function..FnOnce$LT$$LP$pyo3..marker..Python$C$$RP$$GT$$u2b$Output$u20$$u3d$$u20$pyo3..err..err_state..PyErrStateLazyFnOutput$u2b$core..marker..Sync$u2b$core..marker..Send$GT$$GT$17hce4449c3a89fbd0eE', symObjAddr: 0x3360, symBinAddr: 0x739C, symSize: 0x80 }
  - { offset: 0x280F2, size: 0x8, addend: 0x0, symName: '__ZN4core3ptr37drop_in_place$LT$pyo3..err..PyErr$GT$17h93d57a576061918eE', symObjAddr: 0x35A4, symBinAddr: 0x741C, symSize: 0x24 }
  - { offset: 0x28121, size: 0x8, addend: 0x0, symName: '__ZN4core3ptr40drop_in_place$LT$pyo3..gil..GILGuard$GT$17h5278bcda7b565ccaE', symObjAddr: 0x35C8, symBinAddr: 0x7440, symSize: 0x60 }
  - { offset: 0x28150, size: 0x8, addend: 0x0, symName: '__ZN4core3ptr42drop_in_place$LT$alloc..string..String$GT$17h4d910dc2b4f2ab21E', symObjAddr: 0x364C, symBinAddr: 0x74A0, symSize: 0x24 }
  - { offset: 0x2817F, size: 0x8, addend: 0x0, symName: '__ZN4core3ptr45drop_in_place$LT$pyo3..gil..ReferencePool$GT$17h9f4f460360fbeadbE', symObjAddr: 0x3700, symBinAddr: 0x74C4, symSize: 0x24 }
  - { offset: 0x281AE, size: 0x8, addend: 0x0, symName: '__ZN4core3ptr50drop_in_place$LT$alloc..borrow..Cow$LT$str$GT$$GT$17h3c7af2dbf7f37f4fE', symObjAddr: 0x37D8, symBinAddr: 0x74E8, symSize: 0x48 }
  - { offset: 0x281DD, size: 0x8, addend: 0x0, symName: '__ZN4core3ptr50drop_in_place$LT$pyo3..impl_..panic..PanicTrap$GT$17hb698350524105facE', symObjAddr: 0x3820, symBinAddr: 0x7530, symSize: 0x24 }
  - { offset: 0x2820C, size: 0x8, addend: 0x0, symName: '__ZN4core3ptr53drop_in_place$LT$$LP$alloc..string..String$C$$RP$$GT$17h9ce1698998097998E', symObjAddr: 0x38A0, symBinAddr: 0x7554, symSize: 0x24 }
  - { offset: 0x2823B, size: 0x8, addend: 0x0, symName: '__ZN4core3ptr53drop_in_place$LT$pyo3..err..err_state..PyErrState$GT$17hc3dff3a4f4e26c81E', symObjAddr: 0x38C4, symBinAddr: 0x7578, symSize: 0xE0 }
  - { offset: 0x2826A, size: 0x8, addend: 0x0, symName: '__ZN4core3ptr56drop_in_place$LT$pyo3..err..PyDowncastErrorArguments$GT$17h4d31e594b7ffcc31E', symObjAddr: 0x39C8, symBinAddr: 0x7658, symSize: 0x5C }
  - { offset: 0x28299, size: 0x8, addend: 0x0, symName: '__ZN4core3ptr58drop_in_place$LT$std..sys..sync..mutex..pthread..Mutex$GT$17h61ab19ca9affe871E', symObjAddr: 0x3A90, symBinAddr: 0x76B4, symSize: 0x5C }
  - { offset: 0x282C8, size: 0x8, addend: 0x0, symName: '__ZN4core3ptr60drop_in_place$LT$std..sys..pal..unix..sync..mutex..Mutex$GT$17h997787248c3ebe8cE', symObjAddr: 0x3B34, symBinAddr: 0x7710, symSize: 0x24 }
  - { offset: 0x282F7, size: 0x8, addend: 0x0, symName: '__ZN4core3ptr63drop_in_place$LT$pyo3..err..err_state..PyErrStateNormalized$GT$17he4ba12e233da5101E', symObjAddr: 0x3B58, symBinAddr: 0x7734, symSize: 0x90 }
  - { offset: 0x28326, size: 0x8, addend: 0x0, symName: '__ZN4core3ptr70drop_in_place$LT$pyo3..instance..Py$LT$pyo3..types..any..PyAny$GT$$GT$17hb0a396ed272c2db2E', symObjAddr: 0x3E8C, symBinAddr: 0x77C4, symSize: 0x2C }
  - { offset: 0x28355, size: 0x8, addend: 0x0, symName: '__ZN4core3ptr73drop_in_place$LT$core..option..Option$LT$pyo3..gil..ReferencePool$GT$$GT$17hcfe5c0f9c505ad43E', symObjAddr: 0x3FF0, symBinAddr: 0x77F0, symSize: 0x40 }
  - { offset: 0x28384, size: 0x8, addend: 0x0, symName: '__ZN4core3ptr73drop_in_place$LT$pyo3..instance..Bound$LT$pyo3..types..any..PyAny$GT$$GT$17hbcaa70180c2f2439E', symObjAddr: 0x4054, symBinAddr: 0x7830, symSize: 0x24 }
  - { offset: 0x283B3, size: 0x8, addend: 0x0, symName: '__ZN4core3ptr74drop_in_place$LT$pyo3..instance..Py$LT$pyo3..types..tuple..PyTuple$GT$$GT$17h95721fb4a7e8e7ecE', symObjAddr: 0x4148, symBinAddr: 0x7854, symSize: 0x2C }
  - { offset: 0x283E2, size: 0x8, addend: 0x0, symName: '__ZN4core3ptr75drop_in_place$LT$core..option..Option$LT$alloc..ffi..c_str..CString$GT$$GT$17he7fdcfecb319ad4cE', symObjAddr: 0x4174, symBinAddr: 0x7880, symSize: 0x44 }
  - { offset: 0x28411, size: 0x8, addend: 0x0, symName: '__ZN4core3ptr75drop_in_place$LT$core..result..Result$LT$$RF$str$C$pyo3..err..PyErr$GT$$GT$17h29d6c2cb55853ea6E', symObjAddr: 0x41B8, symBinAddr: 0x78C4, symSize: 0x40 }
  - { offset: 0x28440, size: 0x8, addend: 0x0, symName: '__ZN4core3ptr75drop_in_place$LT$pyo3..instance..Bound$LT$pyo3..types..list..PyList$GT$$GT$17h0b4a0819611b7576E', symObjAddr: 0x421C, symBinAddr: 0x7904, symSize: 0x24 }
  - { offset: 0x2846F, size: 0x8, addend: 0x0, symName: '__ZN4core3ptr76drop_in_place$LT$pyo3..instance..Py$LT$pyo3..types..module..PyModule$GT$$GT$17h85a5588f535ff57cE', symObjAddr: 0x42C8, symBinAddr: 0x7928, symSize: 0x2C }
  - { offset: 0x2849E, size: 0x8, addend: 0x0, symName: '__ZN4core3ptr76drop_in_place$LT$pyo3..instance..Py$LT$pyo3..types..string..PyString$GT$$GT$17hbef46bd9cbdffea8E', symObjAddr: 0x42F4, symBinAddr: 0x7954, symSize: 0x2C }
  - { offset: 0x284CD, size: 0x8, addend: 0x0, symName: '__ZN4core3ptr77drop_in_place$LT$pyo3..instance..Bound$LT$pyo3..types..bytes..PyBytes$GT$$GT$17ha8a7416e4c172421E', symObjAddr: 0x4344, symBinAddr: 0x7980, symSize: 0x24 }
  - { offset: 0x284FC, size: 0x8, addend: 0x0, symName: '__ZN4core3ptr78drop_in_place$LT$pyo3..instance..Py$LT$pyo3..types..typeobject..PyType$GT$$GT$17h6dde8fd7f4d6fe16E', symObjAddr: 0x44B0, symBinAddr: 0x79A4, symSize: 0x2C }
  - { offset: 0x2852B, size: 0x8, addend: 0x0, symName: '__ZN4core3ptr79drop_in_place$LT$pyo3..instance..Bound$LT$pyo3..types..string..PyString$GT$$GT$17h29ef2f3377d44e23E', symObjAddr: 0x455C, symBinAddr: 0x79D0, symSize: 0x24 }
  - { offset: 0x2855A, size: 0x8, addend: 0x0, symName: '__ZN4core3ptr80drop_in_place$LT$$u5b$pyo3..instance..Py$LT$pyo3..types..any..PyAny$GT$$u5d$$GT$17h94b45281a2b4a855E', symObjAddr: 0x4580, symBinAddr: 0x79F4, symSize: 0xB4 }
  - { offset: 0x28589, size: 0x8, addend: 0x0, symName: '__ZN4core3ptr80drop_in_place$LT$pyo3..instance..Py$LT$pyo3..exceptions..PyBaseException$GT$$GT$17hcc62b3cc65ee6c55E', symObjAddr: 0x46A0, symBinAddr: 0x7AA8, symSize: 0x2C }
  - { offset: 0x285B8, size: 0x8, addend: 0x0, symName: '__ZN4core3ptr81drop_in_place$LT$core..option..Option$LT$pyo3..err..err_state..PyErrState$GT$$GT$17hcd1fb0bf4c7e61d9E', symObjAddr: 0x46F0, symBinAddr: 0x7AD4, symSize: 0x44 }
  - { offset: 0x285E7, size: 0x8, addend: 0x0, symName: '__ZN4core3ptr81drop_in_place$LT$pyo3..instance..Bound$LT$pyo3..types..typeobject..PyType$GT$$GT$17h5b2764e1927a3878E', symObjAddr: 0x477C, symBinAddr: 0x7B18, symSize: 0x24 }
  - { offset: 0x28616, size: 0x8, addend: 0x0, symName: '__ZN4core3ptr82drop_in_place$LT$pyo3..instance..Py$LT$pyo3..types..traceback..PyTraceback$GT$$GT$17h8222d153a43eb2fbE', symObjAddr: 0x47A0, symBinAddr: 0x7B3C, symSize: 0x2C }
  - { offset: 0x28645, size: 0x8, addend: 0x0, symName: '__ZN4core3ptr83drop_in_place$LT$pyo3..instance..Bound$LT$pyo3..exceptions..PyBaseException$GT$$GT$17h43431d94c76e70a3E', symObjAddr: 0x47CC, symBinAddr: 0x7B68, symSize: 0x24 }
  - { offset: 0x28674, size: 0x8, addend: 0x0, symName: '__ZN4core3ptr84drop_in_place$LT$pyo3..instance..Bound$LT$pyo3..types..function..PyCFunction$GT$$GT$17hd14646c34440d2e9E', symObjAddr: 0x4838, symBinAddr: 0x7B8C, symSize: 0x24 }
  - { offset: 0x286A3, size: 0x8, addend: 0x0, symName: '__ZN4core3ptr85drop_in_place$LT$alloc..boxed..Box$LT$std..sys..pal..unix..sync..mutex..Mutex$GT$$GT$17h2102e4eece50ad60E', symObjAddr: 0x4910, symBinAddr: 0x7BB0, symSize: 0x60 }
  - { offset: 0x286D2, size: 0x8, addend: 0x0, symName: '__ZN4core3ptr85drop_in_place$LT$pyo3..instance..Bound$LT$pyo3..types..traceback..PyTraceback$GT$$GT$17hfb1894ba34c6796bE', symObjAddr: 0x4A24, symBinAddr: 0x7C10, symSize: 0x24 }
  - { offset: 0x28701, size: 0x8, addend: 0x0, symName: '__ZN4core3ptr91drop_in_place$LT$$u5b$pyo3..instance..Py$LT$pyo3..types..any..PyAny$GT$$u3b$$u20$1$u5d$$GT$17h24af145c43522a06E', symObjAddr: 0x4A6C, symBinAddr: 0x7C34, symSize: 0xA4 }
  - { offset: 0x28730, size: 0x8, addend: 0x0, symName: '__ZN4core3ptr91drop_in_place$LT$alloc..boxed..Box$LT$dyn$u20$core..any..Any$u2b$core..marker..Send$GT$$GT$17hb3c66ea3bf502973E', symObjAddr: 0x4BB4, symBinAddr: 0x7CD8, symSize: 0x80 }
  - { offset: 0x2875F, size: 0x8, addend: 0x0, symName: '__ZN4core3ptr97drop_in_place$LT$core..result..Result$LT$alloc..borrow..Cow$LT$str$GT$$C$pyo3..err..PyErr$GT$$GT$17h58ead6715df9b856E', symObjAddr: 0x4E94, symBinAddr: 0x7D58, symSize: 0x50 }
  - { offset: 0x2878E, size: 0x8, addend: 0x0, symName: '__ZN4core3ptr98drop_in_place$LT$core..option..Option$LT$pyo3..instance..Py$LT$pyo3..types..any..PyAny$GT$$GT$$GT$17h54851552a3a3ddecE', symObjAddr: 0x4F40, symBinAddr: 0x7DA8, symSize: 0x44 }
  - { offset: 0x29D49, size: 0x8, addend: 0x0, symName: __ZN4core4sync6atomic11atomic_load17h224b1b0ae9202716E, symObjAddr: 0x5420, symBinAddr: 0x7DEC, symSize: 0xF8 }
  - { offset: 0x29D8F, size: 0x8, addend: 0x0, symName: __ZN4core4sync6atomic11atomic_load17h9b508be10ea583b7E, symObjAddr: 0x5518, symBinAddr: 0x7EE4, symSize: 0xF8 }
  - { offset: 0x29DD5, size: 0x8, addend: 0x0, symName: __ZN4core4sync6atomic11atomic_load17hcd83f1b049ad762bE, symObjAddr: 0x5610, symBinAddr: 0x7FDC, symSize: 0xF8 }
  - { offset: 0x29E1B, size: 0x8, addend: 0x0, symName: __ZN4core4sync6atomic23atomic_compare_exchange17h3fe183dca7a99d11E, symObjAddr: 0x5708, symBinAddr: 0x80D4, symSize: 0x4B4 }
  - { offset: 0x29EB6, size: 0x8, addend: 0x0, symName: __ZN4core4sync6atomic23atomic_compare_exchange17hbcedddec0be0dab6E, symObjAddr: 0x5BBC, symBinAddr: 0x8588, symSize: 0x4B4 }
  - { offset: 0x2A037, size: 0x8, addend: 0x0, symName: '__ZN110_$LT$core..iter..adapters..enumerate..Enumerate$LT$I$GT$$u20$as$u20$core..iter..traits..iterator..Iterator$GT$4next17ha0f670900fe9f647E', symObjAddr: 0x3BC, symBinAddr: 0x6778, symSize: 0xEC }
  - { offset: 0x2A159, size: 0x8, addend: 0x0, symName: '__ZN63_$LT$I$u20$as$u20$core..iter..traits..collect..IntoIterator$GT$9into_iter17h18ea3310c030fe2eE', symObjAddr: 0x673C, symBinAddr: 0x8A6C, symSize: 0x14 }
  - { offset: 0x2A1A3, size: 0x8, addend: 0x0, symName: '__ZN4core3ops8function6FnOnce40call_once$u7b$$u7b$vtable.shim$u7d$$u7d$17h19b44643c14927bdE', symObjAddr: 0x151C, symBinAddr: 0x6A7C, symSize: 0x24 }
  - { offset: 0x2A1E7, size: 0x8, addend: 0x0, symName: '__ZN4core3ops8function6FnOnce40call_once$u7b$$u7b$vtable.shim$u7d$$u7d$17h1d9dd8ff9352d6beE', symObjAddr: 0x1568, symBinAddr: 0x6AA0, symSize: 0x24 }
  - { offset: 0x2A22B, size: 0x8, addend: 0x0, symName: '__ZN4core3ops8function6FnOnce40call_once$u7b$$u7b$vtable.shim$u7d$$u7d$17h2ab392ec468eca1dE', symObjAddr: 0x15B0, symBinAddr: 0x6AC4, symSize: 0x30 }
  - { offset: 0x2A26B, size: 0x8, addend: 0x0, symName: '__ZN4core3ops8function6FnOnce40call_once$u7b$$u7b$vtable.shim$u7d$$u7d$17h3243e59b7985e494E', symObjAddr: 0x1630, symBinAddr: 0x6AF4, symSize: 0x30 }
  - { offset: 0x2A2AF, size: 0x8, addend: 0x0, symName: '__ZN4core3ops8function6FnOnce40call_once$u7b$$u7b$vtable.shim$u7d$$u7d$17h56e3b8b70f793a7fE', symObjAddr: 0x16E4, symBinAddr: 0x6B24, symSize: 0x30 }
  - { offset: 0x2A2EF, size: 0x8, addend: 0x0, symName: '__ZN4core3ops8function6FnOnce40call_once$u7b$$u7b$vtable.shim$u7d$$u7d$17h80f58c64bad82742E', symObjAddr: 0x181C, symBinAddr: 0x6B54, symSize: 0x30 }
  - { offset: 0x2A333, size: 0x8, addend: 0x0, symName: '__ZN4core3ops8function6FnOnce40call_once$u7b$$u7b$vtable.shim$u7d$$u7d$17haf7e832b92e65fabE', symObjAddr: 0x1944, symBinAddr: 0x6B84, symSize: 0x24 }
  - { offset: 0x2A377, size: 0x8, addend: 0x0, symName: __ZN4core3ops8function6FnOnce9call_once17h0f8b6f371d135b10E, symObjAddr: 0x1B04, symBinAddr: 0x6BA8, symSize: 0x4C }
  - { offset: 0x2A3BB, size: 0x8, addend: 0x0, symName: __ZN4core3ops8function6FnOnce9call_once17h19c3a3c710a558bcE, symObjAddr: 0x1BA8, symBinAddr: 0x6BF4, symSize: 0x24 }
  - { offset: 0x2A3FF, size: 0x8, addend: 0x0, symName: __ZN4core3ops8function6FnOnce9call_once17h1dcf6deea72e822dE, symObjAddr: 0x1BCC, symBinAddr: 0x6C18, symSize: 0x24 }
  - { offset: 0x2A443, size: 0x8, addend: 0x0, symName: __ZN4core3ops8function6FnOnce9call_once17h2f643b1f079074d4E, symObjAddr: 0x1D48, symBinAddr: 0x6C3C, symSize: 0x2C }
  - { offset: 0x2A487, size: 0x8, addend: 0x0, symName: __ZN4core3ops8function6FnOnce9call_once17h35a266cd8a2a814aE, symObjAddr: 0x1D74, symBinAddr: 0x6C68, symSize: 0x24 }
  - { offset: 0x2A4CB, size: 0x8, addend: 0x0, symName: __ZN4core3ops8function6FnOnce9call_once17h4a4b726b93cf1386E, symObjAddr: 0x1E78, symBinAddr: 0x6C8C, symSize: 0x4C }
  - { offset: 0x2A50B, size: 0x8, addend: 0x0, symName: __ZN4core3ops8function6FnOnce9call_once17h67dfeafbeb4af97eE, symObjAddr: 0x1F38, symBinAddr: 0x6CD8, symSize: 0x20 }
  - { offset: 0x2A54F, size: 0x8, addend: 0x0, symName: __ZN4core3ops8function6FnOnce9call_once17ha3821c9d2a2d5c50E, symObjAddr: 0x1FD8, symBinAddr: 0x6CF8, symSize: 0x2C }
  - { offset: 0x2A5B0, size: 0x8, addend: 0x0, symName: __ZN4core3ops8function6FnOnce9call_once17ha7f208cb4b977889E, symObjAddr: 0x2004, symBinAddr: 0x6D24, symSize: 0x24 }
  - { offset: 0x2A5F4, size: 0x8, addend: 0x0, symName: __ZN4core3ops8function6FnOnce9call_once17haa49ca4076088e92E, symObjAddr: 0x2028, symBinAddr: 0x6D48, symSize: 0x40 }
  - { offset: 0x2A639, size: 0x8, addend: 0x0, symName: __ZN4core3ops8function6FnOnce9call_once17hcf19b0ca6561c35fE, symObjAddr: 0x20A4, symBinAddr: 0x6D88, symSize: 0x34 }
  - { offset: 0x2A67D, size: 0x8, addend: 0x0, symName: __ZN4core3ops8function6FnOnce9call_once17hd6cc6753071f2e24E, symObjAddr: 0x20D8, symBinAddr: 0x6DBC, symSize: 0x2C }
  - { offset: 0x2A6C1, size: 0x8, addend: 0x0, symName: __ZN4core3ops8function6FnOnce9call_once17hec7eef5b1b681f50E, symObjAddr: 0x2104, symBinAddr: 0x6DE8, symSize: 0x4C }
  - { offset: 0x2CC6F, size: 0x8, addend: 0x0, symName: __ZN4core3ffi5c_str4CStr6as_ptr17h7ede2fea408fbee3E, symObjAddr: 0xA64, symBinAddr: 0x6864, symSize: 0x18 }
  - { offset: 0x2CD6B, size: 0x8, addend: 0x0, symName: __ZN4core3fmt9Arguments23as_statically_known_str17h8775532a7cce18bdE, symObjAddr: 0xF94, symBinAddr: 0x687C, symSize: 0x104 }
  - { offset: 0x2CF7D, size: 0x8, addend: 0x0, symName: __ZN4core3fmt9Arguments3new17h73dcac6b82297e9cE, symObjAddr: 0x1178, symBinAddr: 0x6980, symSize: 0x1C }
  - { offset: 0x2CFC9, size: 0x8, addend: 0x0, symName: __ZN4core3fmt9Arguments3new17h761a6ebc2e26486dE, symObjAddr: 0x1194, symBinAddr: 0x699C, symSize: 0x1C }
  - { offset: 0x2D19B, size: 0x8, addend: 0x0, symName: __ZN4core3fmt9Arguments8from_str17h92a1f34f3d21e143E, symObjAddr: 0x138C, symBinAddr: 0x69B8, symSize: 0x20 }
  - { offset: 0x2D1BE, size: 0x8, addend: 0x0, symName: __ZN4core3fmt9Formatter9write_fmt17h53868ed1288b2f01E, symObjAddr: 0x13AC, symBinAddr: 0x69D8, symSize: 0xA4 }
  - { offset: 0x2D21B, size: 0x8, addend: 0x0, symName: __ZN4core4sync6atomic9AtomicI6416compare_exchange17hd1375bb82cb009dbE, symObjAddr: 0x6120, symBinAddr: 0x8A3C, symSize: 0x30 }
  - { offset: 0x2DB75, size: 0x8, addend: 0x0, symName: '__ZN5alloc6string94_$LT$impl$u20$core..convert..From$LT$$RF$str$GT$$u20$for$u20$alloc..borrow..Cow$LT$str$GT$$GT$4from17h0e964461aafa8b9dE', symObjAddr: 0x3788, symBinAddr: 0x939C, symSize: 0x2C }
  - { offset: 0x2DC51, size: 0x8, addend: 0x0, symName: '__ZN103_$LT$alloc..vec..into_iter..IntoIter$LT$T$C$A$GT$$u20$as$u20$core..iter..traits..iterator..Iterator$GT$4next17he31d2a865829beadE', symObjAddr: 0x13C, symBinAddr: 0x8A80, symSize: 0x88 }
  - { offset: 0x2DDAB, size: 0x8, addend: 0x0, symName: '__ZN103_$LT$alloc..vec..into_iter..IntoIter$LT$T$C$A$GT$$u20$as$u20$core..iter..traits..iterator..Iterator$GT$9size_hint17hd91b40cfecdcbfbaE', symObjAddr: 0x32C, symBinAddr: 0x8B08, symSize: 0xB4 }
  - { offset: 0x2DED4, size: 0x8, addend: 0x0, symName: '__ZN157_$LT$$LT$alloc..vec..into_iter..IntoIter$LT$T$C$A$GT$$u20$as$u20$core..ops..drop..Drop$GT$..drop..DropGuard$LT$T$C$A$GT$$u20$as$u20$core..ops..drop..Drop$GT$4drop17hd689d964f5c6c5daE', symObjAddr: 0x1A34, symBinAddr: 0x8D40, symSize: 0x6C }
  - { offset: 0x2E040, size: 0x8, addend: 0x0, symName: '__ZN86_$LT$alloc..vec..into_iter..IntoIter$LT$T$C$A$GT$$u20$as$u20$core..ops..drop..Drop$GT$4drop17h58751c2d0f4717abE', symObjAddr: 0x3A54, symBinAddr: 0x94C4, symSize: 0x64 }
  - { offset: 0x2E39C, size: 0x8, addend: 0x0, symName: __ZN5alloc6borrow3Cow8Borrowed17h9f3bed01d2aa2e6bE, symObjAddr: 0x375C, symBinAddr: 0x9370, symSize: 0x2C }
  - { offset: 0x2E3D4, size: 0x8, addend: 0x0, symName: '__ZN71_$LT$alloc..borrow..Cow$LT$B$GT$$u20$as$u20$core..ops..deref..Deref$GT$5deref17hc794d5ab61b583ceE', symObjAddr: 0x3904, symBinAddr: 0x944C, symSize: 0x78 }
  - { offset: 0x2E42F, size: 0x8, addend: 0x0, symName: '__ZN66_$LT$alloc..borrow..Cow$LT$B$GT$$u20$as$u20$core..fmt..Display$GT$3fmt17hce722837f854bb2dE', symObjAddr: 0x3858, symBinAddr: 0x93C8, symSize: 0x84 }
  - { offset: 0x2E6D5, size: 0x8, addend: 0x0, symName: '__ZN4core3ptr8non_null16NonNull$LT$T$GT$13new_unchecked18precondition_check17h2475bc1e8f9a22d2E', symObjAddr: 0x2644, symBinAddr: 0x90FC, symSize: 0x58 }
  - { offset: 0x2E905, size: 0x8, addend: 0x0, symName: '__ZN4core3ptr7mut_ptr31_$LT$impl$u20$$BP$mut$u20$T$GT$7is_null17h0ccbb1422d8ceeebE', symObjAddr: 0x25F0, symBinAddr: 0x90A8, symSize: 0x18 }
  - { offset: 0x2F9E4, size: 0x8, addend: 0x0, symName: __ZN4core3mem4drop17hc363cc4fc550a4f2E, symObjAddr: 0x2424, symBinAddr: 0x9014, symSize: 0x2C }
  - { offset: 0x2FA4A, size: 0x8, addend: 0x0, symName: __ZN4core3mem4take17h1a2728b0a9a2f083E, symObjAddr: 0x24A4, symBinAddr: 0x9040, symSize: 0x54 }
  - { offset: 0x2FAA7, size: 0x8, addend: 0x0, symName: __ZN4core3mem6forget17he0c6037634dec87fE, symObjAddr: 0x25C8, symBinAddr: 0x9094, symSize: 0x14 }
  - { offset: 0x301AB, size: 0x8, addend: 0x0, symName: '__ZN50_$LT$T$u20$as$u20$core..convert..Into$LT$U$GT$$GT$4into17h0c22cd2cd5a31a5cE', symObjAddr: 0x3140, symBinAddr: 0x921C, symSize: 0x14 }
  - { offset: 0x3050A, size: 0x8, addend: 0x0, symName: __ZN8pyo3_ffi6object12PyType_Check17h287b28b453ffe5efE, symObjAddr: 0x3DA8, symBinAddr: 0x95C4, symSize: 0x30 }
  - { offset: 0x30538, size: 0x8, addend: 0x0, symName: __ZN8pyo3_ffi6object17PyType_HasFeature17h87de742be0406b50E, symObjAddr: 0x3DD8, symBinAddr: 0x95F4, symSize: 0x88 }
  - { offset: 0x30575, size: 0x8, addend: 0x0, symName: __ZN8pyo3_ffi6object19PyType_FastSubclass17h23488a5c52b52de6E, symObjAddr: 0x3EE0, symBinAddr: 0x967C, symSize: 0x28 }
  - { offset: 0x305B2, size: 0x8, addend: 0x0, symName: __ZN8pyo3_ffi6object7Py_TYPE17h2951cc5ddc70eaf2E, symObjAddr: 0x40E8, symBinAddr: 0x96A4, symSize: 0x74 }
  - { offset: 0x30CE9, size: 0x8, addend: 0x0, symName: __ZN8pyo3_ffi13unicodeobject15PyUnicode_Check17h70c8395e3c6063daE, symObjAddr: 0x3C80, symBinAddr: 0x9594, symSize: 0x30 }
  - { offset: 0x30EB5, size: 0x8, addend: 0x0, symName: '__ZN103_$LT$pyo3..instance..Bound$LT$pyo3..types..any..PyAny$GT$$u20$as$u20$pyo3..types..any..PyAnyMethods$GT$7getattr5inner17h28ececa17cfaabbeE', symObjAddr: 0x1284, symBinAddr: 0x8BBC, symSize: 0xA8 }
  - { offset: 0x30EF8, size: 0x8, addend: 0x0, symName: '__ZN103_$LT$pyo3..instance..Bound$LT$pyo3..types..any..PyAny$GT$$u20$as$u20$pyo3..types..any..PyAnyMethods$GT$7setattr5inner17hedb2cdb10153b5c8E', symObjAddr: 0x147C, symBinAddr: 0x8C64, symSize: 0xDC }
  - { offset: 0x31188, size: 0x8, addend: 0x0, symName: '__ZN87_$LT$$BP$mut$u20$pyo3_ffi..object..PyObject$u20$as$u20$pyo3..ffi_ptr_ext..FfiPtrExt$GT$12assume_owned17h0859eb847109eab8E', symObjAddr: 0x3BA8, symBinAddr: 0x9528, symSize: 0x24 }
  - { offset: 0x311CD, size: 0x8, addend: 0x0, symName: '__ZN87_$LT$$BP$mut$u20$pyo3_ffi..object..PyObject$u20$as$u20$pyo3..ffi_ptr_ext..FfiPtrExt$GT$19assume_owned_or_err17hb466c6a75091d2b2E', symObjAddr: 0x3BF0, symBinAddr: 0x954C, symSize: 0x24 }
  - { offset: 0x31212, size: 0x8, addend: 0x0, symName: '__ZN87_$LT$$BP$mut$u20$pyo3_ffi..object..PyObject$u20$as$u20$pyo3..ffi_ptr_ext..FfiPtrExt$GT$25assume_borrowed_unchecked17hc95ad39bc3310374E', symObjAddr: 0x3C5C, symBinAddr: 0x9570, symSize: 0x24 }
  - { offset: 0x31CE3, size: 0x8, addend: 0x0, symName: '__ZN3std6thread5local17LocalKey$LT$T$GT$8try_with17hd84299ee07912f03E', symObjAddr: 0x1F9C, symBinAddr: 0x8DAC, symSize: 0xCC }
  - { offset: 0x31E64, size: 0x8, addend: 0x0, symName: '__ZN3std6thread5local17LocalKey$LT$T$GT$8try_with17hdc1250d23e0b107aE', symObjAddr: 0x2068, symBinAddr: 0x8E78, symSize: 0xD0 }
  - { offset: 0x31FE6, size: 0x8, addend: 0x0, symName: '__ZN3std6thread5local17LocalKey$LT$T$GT$8try_with17hf0dbaf8bac24d362E', symObjAddr: 0x2210, symBinAddr: 0x8F48, symSize: 0xCC }
  - { offset: 0x321BA, size: 0x8, addend: 0x0, symName: '__ZN4core3ptr8non_null16NonNull$LT$T$GT$13new_unchecked17h28842bfb5967619aE', symObjAddr: 0x2608, symBinAddr: 0x90C0, symSize: 0x3C }
  - { offset: 0x32200, size: 0x8, addend: 0x0, symName: '__ZN4core3ptr8non_null16NonNull$LT$T$GT$3new17hb017ba3b28562c94E', symObjAddr: 0x269C, symBinAddr: 0x9154, symSize: 0x58 }
  - { offset: 0x32260, size: 0x8, addend: 0x0, symName: '__ZN4core4cell13Cell$LT$T$GT$3get17h7d21f2d3aec46a09E', symObjAddr: 0x290C, symBinAddr: 0x91AC, symSize: 0x18 }
  - { offset: 0x322B4, size: 0x8, addend: 0x0, symName: '__ZN4core4cell13Cell$LT$T$GT$3set17h8f0b4ffd4db560e8E', symObjAddr: 0x2940, symBinAddr: 0x91C4, symSize: 0x1C }
  - { offset: 0x323DD, size: 0x8, addend: 0x0, symName: '__ZN4core4cell13Cell$LT$T$GT$4take17h8c50e63d815570fdE', symObjAddr: 0x295C, symBinAddr: 0x91E0, symSize: 0x3C }
  - { offset: 0x324BB, size: 0x8, addend: 0x0, symName: '__ZN5alloc3vec9into_iter21IntoIter$LT$T$C$A$GT$16as_raw_mut_slice17hf00107e39ac57b35E', symObjAddr: 0x361C, symBinAddr: 0x9230, symSize: 0xCC }
  - { offset: 0x325AE, size: 0x8, addend: 0x0, symName: '__ZN5alloc6borrow12Cow$LT$B$GT$10into_owned17h1fd1778385ba1a58E', symObjAddr: 0x36E8, symBinAddr: 0x92FC, symSize: 0x74 }
  - { offset: 0x32A17, size: 0x8, addend: 0x0, symName: '__ZN64_$LT$alloc..ffi..c_str..NulError$u20$as$u20$core..fmt..Debug$GT$3fmt17h1ada122d8e269d72E', symObjAddr: 0x781C, symBinAddr: 0xB1C0, symSize: 0x5C }
  - { offset: 0x32A57, size: 0x8, addend: 0x0, symName: '__ZN70_$LT$alloc..ffi..c_str..CString$u20$as$u20$core..ops..deref..Deref$GT$5deref17h7e5895e48b0ac2bcE', symObjAddr: 0x7A08, symBinAddr: 0xB21C, symSize: 0x20 }
  - { offset: 0x32E0E, size: 0x8, addend: 0x0, symName: __ZN4core3ptr9alignment9Alignment13new_unchecked18precondition_check17ha5eca2e12be4b1f6E, symObjAddr: 0x88C, symBinAddr: 0x97CC, symSize: 0x70 }
  - { offset: 0x34AE8, size: 0x8, addend: 0x0, symName: '__ZN4pyo33err5PyErr3new28_$u7b$$u7b$closure$u7d$$u7d$17h151280f1ebf78866E', symObjAddr: 0x3E14, symBinAddr: 0xA4C0, symSize: 0xC0 }
  - { offset: 0x34B40, size: 0x8, addend: 0x0, symName: '__ZN4pyo33err5PyErr3new28_$u7b$$u7b$closure$u7d$$u7d$17h36a6771e823bb08dE', symObjAddr: 0x4354, symBinAddr: 0xA580, symSize: 0xD4 }
  - { offset: 0x34B99, size: 0x8, addend: 0x0, symName: '__ZN4pyo33err5PyErr3new28_$u7b$$u7b$closure$u7d$$u7d$17haa72f8b58f2fe13aE', symObjAddr: 0x4B08, symBinAddr: 0xA654, symSize: 0xD4 }
  - { offset: 0x34BF2, size: 0x8, addend: 0x0, symName: '__ZN4pyo33err5PyErr3new28_$u7b$$u7b$closure$u7d$$u7d$17hb1c17359b33954ecE', symObjAddr: 0x4C94, symBinAddr: 0xA728, symSize: 0xC0 }
  - { offset: 0x34C50, size: 0x8, addend: 0x0, symName: '__ZN4pyo33err5PyErr14new_type_bound28_$u7b$$u7b$closure$u7d$$u7d$17h4d15be678e94652aE', symObjAddr: 0x1EA0, symBinAddr: 0x9F3C, symSize: 0x50 }
  - { offset: 0x34C96, size: 0x8, addend: 0x0, symName: '__ZN4pyo33err5PyErr5_take28_$u7b$$u7b$closure$u7d$$u7d$17h6cf3961b15bc60b4E', symObjAddr: 0x5B70, symBinAddr: 0xAC24, symSize: 0x7C }
  - { offset: 0x34CCF, size: 0x8, addend: 0x0, symName: '__ZN4pyo33err5PyErr5_take28_$u7b$$u7b$closure$u7d$$u7d$17h6dcf7841d792cbd9E', symObjAddr: 0x5BEC, symBinAddr: 0xACA0, symSize: 0x2C }
  - { offset: 0x34CF9, size: 0x8, addend: 0x0, symName: '__ZN4pyo33err5PyErr5_take28_$u7b$$u7b$closure$u7d$$u7d$17hbed1883a038d0a7aE', symObjAddr: 0x5C18, symBinAddr: 0xACCC, symSize: 0x44 }
  - { offset: 0x35837, size: 0x8, addend: 0x0, symName: __ZN4pyo33err17error_on_minusone17h2a9e37e3b39679baE, symObjAddr: 0xE00, symBinAddr: 0x98D4, symSize: 0xC0 }
  - { offset: 0x35889, size: 0x8, addend: 0x0, symName: __ZN4pyo33err17error_on_minusone17h73b052272b4d9494E, symObjAddr: 0xF80, symBinAddr: 0x9994, symSize: 0xC0 }
  - { offset: 0x358DB, size: 0x8, addend: 0x0, symName: __ZN4pyo33err17panic_after_error17h7790bbf5a2004c7cE, symObjAddr: 0x1040, symBinAddr: 0x9A54, symSize: 0x30 }
  - { offset: 0x35916, size: 0x8, addend: 0x0, symName: '__ZN53_$LT$pyo3..err..PyErr$u20$as$u20$core..fmt..Debug$GT$3fmt17h83a39822c45d7657E', symObjAddr: 0x7204, symBinAddr: 0xB01C, symSize: 0x38 }
  - { offset: 0x35958, size: 0x8, addend: 0x0, symName: '__ZN53_$LT$pyo3..err..PyErr$u20$as$u20$core..fmt..Debug$GT$3fmt28_$u7b$$u7b$closure$u7d$$u7d$17hd4e8bc59d018a687E', symObjAddr: 0x723C, symBinAddr: 0xB054, symSize: 0x16C }
  - { offset: 0x359BD, size: 0x8, addend: 0x0, symName: '__ZN92_$LT$pyo3..err..PyDowncastErrorArguments$u20$as$u20$pyo3..err..err_state..PyErrArguments$GT$9arguments17hc077c0c890688928E', symObjAddr: 0x7BD0, symBinAddr: 0xB2D0, symSize: 0x240 }
  - { offset: 0x35AA7, size: 0x8, addend: 0x0, symName: '__ZN92_$LT$pyo3..err..PyErr$u20$as$u20$core..convert..From$LT$pyo3..err..DowncastIntoError$GT$$GT$4from17h533f1be6ee87fc14E', symObjAddr: 0x7E10, symBinAddr: 0xB510, symSize: 0xF4 }
  - { offset: 0x35F35, size: 0x8, addend: 0x0, symName: '__ZN71_$LT$pyo3..impl_..panic..PanicTrap$u20$as$u20$core..ops..drop..Drop$GT$4drop17h08bc720b3d2e6fadE', symObjAddr: 0x7A28, symBinAddr: 0xB23C, symSize: 0x20 }
  - { offset: 0x36501, size: 0x8, addend: 0x0, symName: '__ZN84_$LT$std..sys..sync..once_box..OnceBox$LT$T$GT$$u20$as$u20$core..ops..drop..Drop$GT$4drop17hed6b022f125fde64E', symObjAddr: 0x7A48, symBinAddr: 0xB25C, symSize: 0x74 }
  - { offset: 0x37443, size: 0x8, addend: 0x0, symName: '__ZN3std3sys4sync8once_box16OnceBox$LT$T$GT$10initialize17h69a8869460bb8f2dE', symObjAddr: 0x140, symBinAddr: 0x41980, symSize: 0xD8 }
  - { offset: 0x3761A, size: 0x8, addend: 0x0, symName: '__ZN3std3sys4sync8once_box16OnceBox$LT$T$GT$11get_or_init17h34fd5e4c8a256c75E', symObjAddr: 0x218, symBinAddr: 0x9718, symSize: 0xB4 }
  - { offset: 0x3779C, size: 0x8, addend: 0x0, symName: __ZN4pyo33err17DowncastIntoError3new17h5f1c883b41f4399fE, symObjAddr: 0xD68, symBinAddr: 0x983C, symSize: 0x98 }
  - { offset: 0x377F1, size: 0x8, addend: 0x0, symName: __ZN4pyo33err5PyErr10from_state17he1a2d2af617330abE, symObjAddr: 0x123C, symBinAddr: 0x9A84, symSize: 0x3C }
  - { offset: 0x3783F, size: 0x8, addend: 0x0, symName: __ZN4pyo33err5PyErr10normalized17h1389766972c3b22bE, symObjAddr: 0x13A0, symBinAddr: 0x9AC0, symSize: 0xCC }
  - { offset: 0x378A0, size: 0x8, addend: 0x0, symName: __ZN4pyo33err5PyErr11value_bound17hb390093df0b35134E, symObjAddr: 0x15C8, symBinAddr: 0x9B8C, symSize: 0x2C }
  - { offset: 0x378DE, size: 0x8, addend: 0x0, symName: __ZN4pyo33err5PyErr14get_type_bound17hdb38a6375cc34d79E, symObjAddr: 0x15F4, symBinAddr: 0x9BB8, symSize: 0x28 }
  - { offset: 0x3791C, size: 0x8, addend: 0x0, symName: __ZN4pyo33err5PyErr14is_instance_of17h33ddd5f028c46480E, symObjAddr: 0x1724, symBinAddr: 0x9BE0, symSize: 0x84 }
  - { offset: 0x37970, size: 0x8, addend: 0x0, symName: __ZN4pyo33err5PyErr14new_type_bound17he01e6abe9c1f5184E, symObjAddr: 0x1BC8, symBinAddr: 0x9C64, symSize: 0x2D8 }
  - { offset: 0x37B29, size: 0x8, addend: 0x0, symName: __ZN4pyo33err5PyErr15make_normalized17hfc05b449887ab99fE, symObjAddr: 0x1EF0, symBinAddr: 0x41A58, symSize: 0x248 }
  - { offset: 0x37BB4, size: 0x8, addend: 0x0, symName: __ZN4pyo33err5PyErr15traceback_bound17hfb90fe0d401ed46dE, symObjAddr: 0x2138, symBinAddr: 0x9F8C, symSize: 0x28 }
  - { offset: 0x37BF2, size: 0x8, addend: 0x0, symName: __ZN4pyo33err5PyErr17is_instance_bound17hcd1b127935da6855E, symObjAddr: 0x2320, symBinAddr: 0x9FB4, symSize: 0xA0 }
  - { offset: 0x37C62, size: 0x8, addend: 0x0, symName: __ZN4pyo33err5PyErr22print_panic_and_unwind17hbd12b84d8d6fda10E, symObjAddr: 0x2810, symBinAddr: 0xA054, symSize: 0x1A8 }
  - { offset: 0x37CCF, size: 0x8, addend: 0x0, symName: __ZN4pyo33err5PyErr22write_unraisable_bound17h694de2202478005cE, symObjAddr: 0x29B8, symBinAddr: 0xA1FC, symSize: 0x4C }
  - { offset: 0x37D2A, size: 0x8, addend: 0x0, symName: __ZN4pyo33err5PyErr3new17h2186125ba56b5fd0E, symObjAddr: 0x2D68, symBinAddr: 0xA248, symSize: 0x9C }
  - { offset: 0x37D88, size: 0x8, addend: 0x0, symName: __ZN4pyo33err5PyErr3new17h51419c812692ed54E, symObjAddr: 0x32D8, symBinAddr: 0xA2E4, symSize: 0xA0 }
  - { offset: 0x37DE7, size: 0x8, addend: 0x0, symName: __ZN4pyo33err5PyErr3new17h5ae977e189b08d3dE, symObjAddr: 0x34B8, symBinAddr: 0xA384, symSize: 0xA0 }
  - { offset: 0x37E46, size: 0x8, addend: 0x0, symName: __ZN4pyo33err5PyErr3new17hc11ed2abcd70bbe1E, symObjAddr: 0x3A40, symBinAddr: 0xA424, symSize: 0x9C }
  - { offset: 0x37E97, size: 0x8, addend: 0x0, symName: __ZN4pyo33err5PyErr4take17h8200b44e3b171233E, symObjAddr: 0x5734, symBinAddr: 0xA7E8, symSize: 0x1C }
  - { offset: 0x37EC6, size: 0x8, addend: 0x0, symName: __ZN4pyo33err5PyErr5_take17h5e21bf0e0f80abb4E, symObjAddr: 0x5750, symBinAddr: 0xA804, symSize: 0x420 }
  - { offset: 0x38035, size: 0x8, addend: 0x0, symName: __ZN4pyo33err5PyErr5fetch17h438514222817809dE, symObjAddr: 0x5CA0, symBinAddr: 0xAD10, symSize: 0x5C }
  - { offset: 0x38080, size: 0x8, addend: 0x0, symName: __ZN4pyo33err5PyErr7restore17hb677ae17d9384c13E, symObjAddr: 0x5E64, symBinAddr: 0xAD6C, symSize: 0x68 }
  - { offset: 0x38104, size: 0x8, addend: 0x0, symName: __ZN4pyo35types8function11PyCFunction12internal_new17h878565dca9eb2b04E, symObjAddr: 0x68E8, symBinAddr: 0xADD4, symSize: 0x248 }
  - { offset: 0x385AC, size: 0x8, addend: 0x0, symName: '__ZN5alloc5boxed12Box$LT$T$GT$8into_raw17hfdd5a5bf64c2ef8bE', symObjAddr: 0x4168, symBinAddr: 0xC34C, symSize: 0x14 }
  - { offset: 0x386AD, size: 0x8, addend: 0x0, symName: '__ZN72_$LT$alloc..boxed..Box$LT$T$C$A$GT$$u20$as$u20$core..ops..drop..Drop$GT$4drop17h26dce0205531bc4dE', symObjAddr: 0x457C, symBinAddr: 0xC450, symSize: 0xB0 }
  - { offset: 0x387E6, size: 0x8, addend: 0x0, symName: '__ZN72_$LT$alloc..boxed..Box$LT$T$C$A$GT$$u20$as$u20$core..ops..drop..Drop$GT$4drop17h97267b957518d3d1E', symObjAddr: 0x4928, symBinAddr: 0xC500, symSize: 0xC4 }
  - { offset: 0x3891F, size: 0x8, addend: 0x0, symName: '__ZN72_$LT$alloc..boxed..Box$LT$T$C$A$GT$$u20$as$u20$core..ops..drop..Drop$GT$4drop17hb949c08023c32329E', symObjAddr: 0x4A9C, symBinAddr: 0xC5C4, symSize: 0xC4 }
  - { offset: 0x38AA8, size: 0x8, addend: 0x0, symName: '__ZN90_$LT$alloc..boxed..Box$LT$F$C$A$GT$$u20$as$u20$core..ops..function..FnOnce$LT$Args$GT$$GT$9call_once17h1e4d8ba948f9f9b5E', symObjAddr: 0x5084, symBinAddr: 0xC690, symSize: 0x138 }
  - { offset: 0x39455, size: 0x8, addend: 0x0, symName: '__ZN70_$LT$core..num..error..TryFromIntError$u20$as$u20$core..fmt..Debug$GT$3fmt17h8b78b06b6eeccbe2E', symObjAddr: 0x4350, symBinAddr: 0xC3FC, symSize: 0x54 }
  - { offset: 0x3B6FD, size: 0x8, addend: 0x0, symName: '__ZN66_$LT$core..option..Option$LT$T$GT$$u20$as$u20$core..fmt..Debug$GT$3fmt17h678202f96be2b62aE', symObjAddr: 0x4214, symBinAddr: 0xC360, symSize: 0x9C }
  - { offset: 0x3B767, size: 0x8, addend: 0x0, symName: '__ZN72_$LT$core..option..Option$LT$T$GT$$u20$as$u20$core..default..Default$GT$7default17hb95a056a0d8862cbE', symObjAddr: 0x4C28, symBinAddr: 0xC688, symSize: 0x8 }
  - { offset: 0x3DC7C, size: 0x8, addend: 0x0, symName: '__ZN3std3sys4sync5mutex7pthread5Mutex3get28_$u7b$$u7b$closure$u7d$$u7d$17h5f8731e74ae971b2E', symObjAddr: 0xE3C, symBinAddr: 0xB604, symSize: 0xF4 }
  - { offset: 0x3E152, size: 0x8, addend: 0x0, symName: '__ZN4core6option15Option$LT$T$GT$11map_or_else17hcda6d20965fe5bc1E', symObjAddr: 0x19EC, symBinAddr: 0xB6F8, symSize: 0xC0 }
  - { offset: 0x3E1E2, size: 0x8, addend: 0x0, symName: '__ZN4core6option15Option$LT$T$GT$14unwrap_or_else17h7b2a27430224b215E', symObjAddr: 0x1C28, symBinAddr: 0xB7B8, symSize: 0x60 }
  - { offset: 0x3E383, size: 0x8, addend: 0x0, symName: '__ZN4core6option15Option$LT$T$GT$16unwrap_unchecked17h0d9dc61f39c0e993E', symObjAddr: 0x1C88, symBinAddr: 0xB818, symSize: 0x4C }
  - { offset: 0x3E3D1, size: 0x8, addend: 0x0, symName: '__ZN4core6option15Option$LT$T$GT$16unwrap_unchecked17h635663edda68a517E', symObjAddr: 0x1CD4, symBinAddr: 0xB864, symSize: 0x4C }
  - { offset: 0x3E448, size: 0x8, addend: 0x0, symName: '__ZN4core6option15Option$LT$T$GT$3map17h0847d390e813e940E', symObjAddr: 0x1DF0, symBinAddr: 0xB8B0, symSize: 0x50 }
  - { offset: 0x3E4B3, size: 0x8, addend: 0x0, symName: '__ZN4core6option15Option$LT$T$GT$3map17h0df4222522b36445E', symObjAddr: 0x1E40, symBinAddr: 0xB900, symSize: 0x50 }
  - { offset: 0x3E51E, size: 0x8, addend: 0x0, symName: '__ZN4core6option15Option$LT$T$GT$3map17h1202c86ec33f07f1E', symObjAddr: 0x1E90, symBinAddr: 0xB950, symSize: 0x6C }
  - { offset: 0x3E589, size: 0x8, addend: 0x0, symName: '__ZN4core6option15Option$LT$T$GT$3map17h1cf227c677fe5a0eE', symObjAddr: 0x1EFC, symBinAddr: 0xB9BC, symSize: 0x50 }
  - { offset: 0x3E601, size: 0x8, addend: 0x0, symName: '__ZN4core6option15Option$LT$T$GT$3map17h409b0f0bc1fa9427E', symObjAddr: 0x1FA8, symBinAddr: 0xBA0C, symSize: 0x64 }
  - { offset: 0x3E679, size: 0x8, addend: 0x0, symName: '__ZN4core6option15Option$LT$T$GT$3map17h4f4523d445ae9cbcE', symObjAddr: 0x200C, symBinAddr: 0xBA70, symSize: 0x5C }
  - { offset: 0x3E769, size: 0x8, addend: 0x0, symName: '__ZN4core6option15Option$LT$T$GT$3map17hf41ecc557fc887bdE', symObjAddr: 0x242C, symBinAddr: 0xBACC, symSize: 0x50 }
  - { offset: 0x3E7E1, size: 0x8, addend: 0x0, symName: '__ZN4core6option15Option$LT$T$GT$4take17h2cebdd964d80a34eE', symObjAddr: 0x247C, symBinAddr: 0xBB1C, symSize: 0x3C }
  - { offset: 0x3E838, size: 0x8, addend: 0x0, symName: '__ZN4core6option15Option$LT$T$GT$4take17h5742199e63d70804E', symObjAddr: 0x24B8, symBinAddr: 0xBB58, symSize: 0x20 }
  - { offset: 0x3E88F, size: 0x8, addend: 0x0, symName: '__ZN4core6option15Option$LT$T$GT$6as_ref17h1338931b80a429baE', symObjAddr: 0x2558, symBinAddr: 0xBB78, symSize: 0x4C }
  - { offset: 0x3E8F3, size: 0x8, addend: 0x0, symName: '__ZN4core6option15Option$LT$T$GT$6as_ref17h1d3ab2bc548fa1f4E', symObjAddr: 0x25A4, symBinAddr: 0xBBC4, symSize: 0x4C }
  - { offset: 0x3E996, size: 0x8, addend: 0x0, symName: '__ZN4core6option15Option$LT$T$GT$6as_ref17h6f834326e5563cd1E', symObjAddr: 0x26D4, symBinAddr: 0xBC10, symSize: 0x4C }
  - { offset: 0x3E9ED, size: 0x8, addend: 0x0, symName: '__ZN4core6option15Option$LT$T$GT$6as_ref17haf556e0eb8c77e90E', symObjAddr: 0x2720, symBinAddr: 0xBC5C, symSize: 0x48 }
  - { offset: 0x3EA5E, size: 0x8, addend: 0x0, symName: '__ZN4core6option15Option$LT$T$GT$6as_ref17hceccb452d64851a2E', symObjAddr: 0x27B4, symBinAddr: 0xBCA4, symSize: 0x4C }
  - { offset: 0x3EAC2, size: 0x8, addend: 0x0, symName: '__ZN4core6option15Option$LT$T$GT$6as_ref17hd2a73d8a8ba7d61eE', symObjAddr: 0x2800, symBinAddr: 0xBCF0, symSize: 0x4C }
  - { offset: 0x3EB26, size: 0x8, addend: 0x0, symName: '__ZN4core6option15Option$LT$T$GT$6as_ref17he7a4b1a7052c79d7E', symObjAddr: 0x284C, symBinAddr: 0xBD3C, symSize: 0x4C }
  - { offset: 0x3EB70, size: 0x8, addend: 0x0, symName: '__ZN4core6option15Option$LT$T$GT$6expect17h0223744c19c1a053E', symObjAddr: 0x2898, symBinAddr: 0xBD88, symSize: 0x70 }
  - { offset: 0x3EBAC, size: 0x8, addend: 0x0, symName: '__ZN4core6option15Option$LT$T$GT$6expect17h1a7f7973daa54d60E', symObjAddr: 0x2908, symBinAddr: 0xBDF8, symSize: 0x5C }
  - { offset: 0x3EBE7, size: 0x8, addend: 0x0, symName: '__ZN4core6option15Option$LT$T$GT$6expect17hade8cbd18991d220E', symObjAddr: 0x2964, symBinAddr: 0xBE54, symSize: 0x5C }
  - { offset: 0x3EC3A, size: 0x8, addend: 0x0, symName: '__ZN4core6option15Option$LT$T$GT$6map_or17h4345b2ee564c8801E', symObjAddr: 0x2A6C, symBinAddr: 0xBEB0, symSize: 0x9C }
  - { offset: 0x3ECC4, size: 0x8, addend: 0x0, symName: '__ZN4core6option15Option$LT$T$GT$6map_or17h4712de8c4a6aedffE', symObjAddr: 0x2B08, symBinAddr: 0xBF4C, symSize: 0x9C }
  - { offset: 0x3ED4E, size: 0x8, addend: 0x0, symName: '__ZN4core6option15Option$LT$T$GT$6map_or17h528af9ea62db9045E', symObjAddr: 0x2BA4, symBinAddr: 0xBFE8, symSize: 0x9C }
  - { offset: 0x3EDD8, size: 0x8, addend: 0x0, symName: '__ZN4core6option15Option$LT$T$GT$6map_or17h69b38a248ced998fE', symObjAddr: 0x2C40, symBinAddr: 0xC084, symSize: 0x9C }
  - { offset: 0x3EE7E, size: 0x8, addend: 0x0, symName: '__ZN4core6option15Option$LT$T$GT$7is_none17h3d429369a6ac03faE', symObjAddr: 0x2EBC, symBinAddr: 0xC120, symSize: 0x28 }
  - { offset: 0x3EED5, size: 0x8, addend: 0x0, symName: '__ZN4core6option15Option$LT$T$GT$7is_some17h89b59800051d13d6E', symObjAddr: 0x2FD4, symBinAddr: 0xC148, symSize: 0x28 }
  - { offset: 0x3EF01, size: 0x8, addend: 0x0, symName: '__ZN4core6option15Option$LT$T$GT$7is_some17h96c54f81d75fe3edE', symObjAddr: 0x2FFC, symBinAddr: 0xC170, symSize: 0x28 }
  - { offset: 0x3EF2D, size: 0x8, addend: 0x0, symName: '__ZN4core6option15Option$LT$T$GT$7is_some17h9719b4c544cf30ccE', symObjAddr: 0x3024, symBinAddr: 0xC198, symSize: 0x28 }
  - { offset: 0x3EF59, size: 0x8, addend: 0x0, symName: '__ZN4core6option15Option$LT$T$GT$7is_some17hb3d580d3dcd0ff54E', symObjAddr: 0x3074, symBinAddr: 0xC1C0, symSize: 0x28 }
  - { offset: 0x3EF85, size: 0x8, addend: 0x0, symName: '__ZN4core6option15Option$LT$T$GT$8and_then17hc2b7eb78db8124eeE', symObjAddr: 0x309C, symBinAddr: 0xC1E8, symSize: 0x5C }
  - { offset: 0x3EFFD, size: 0x8, addend: 0x0, symName: __ZN4pyo36marker6Python14get_type_bound17h887bee5e36ea6b24E, symObjAddr: 0x3630, symBinAddr: 0xC244, symSize: 0x1C }
  - { offset: 0x3F035, size: 0x8, addend: 0x0, symName: __ZN4pyo36marker6Python19assume_gil_acquired17heda3a921141e8c44E, symObjAddr: 0x3668, symBinAddr: 0xC260, symSize: 0x4 }
  - { offset: 0x3F06F, size: 0x8, addend: 0x0, symName: __ZN4pyo36marker6Python8with_gil17hb241b5b09ef80ddbE, symObjAddr: 0x3F30, symBinAddr: 0xC264, symSize: 0xE8 }
  - { offset: 0x3F7B0, size: 0x8, addend: 0x0, symName: '__ZN4core3ptr7mut_ptr31_$LT$impl$u20$$BP$mut$u20$T$GT$6offset18precondition_check17hedfe79d6acc1d50eE', symObjAddr: 0x5D4, symBinAddr: 0xC7C8, symSize: 0xC4 }
  - { offset: 0x40974, size: 0x8, addend: 0x0, symName: __ZN4core9panicking13panic_display17h5aba893881db9797E, symObjAddr: 0x1148, symBinAddr: 0xC88C, symSize: 0x5C }
  - { offset: 0x41934, size: 0x8, addend: 0x0, symName: '__ZN9once_cell3imp17OnceCell$LT$T$GT$10initialize28_$u7b$$u7b$closure$u7d$$u7d$17h1f7fecb7053ba755E', symObjAddr: 0x3C80, symBinAddr: 0xC9C4, symSize: 0x1AC }
  - { offset: 0x41F1F, size: 0x8, addend: 0x0, symName: __ZN4pyo35impl_9pymethods11PyMethodDef13as_method_def17h8fd624075c57208cE, symObjAddr: 0x126C, symBinAddr: 0xC8E8, symSize: 0xDC }
  - { offset: 0x41FF8, size: 0x8, addend: 0x0, symName: '__ZN9once_cell3imp17OnceCell$LT$T$GT$10initialize17h45faf1dc4693d7cfE', symObjAddr: 0x3BFC, symBinAddr: 0x41CA0, symSize: 0x84 }
  - { offset: 0x420B4, size: 0x8, addend: 0x0, symName: '__ZN9once_cell3imp17OnceCell$LT$T$GT$13get_unchecked17h5442d1a827721915E', symObjAddr: 0x3E2C, symBinAddr: 0xCB70, symSize: 0xAC }
  - { offset: 0x420FC, size: 0x8, addend: 0x0, symName: '__ZN9once_cell3imp17OnceCell$LT$T$GT$14is_initialized17hf526306b40407674E', symObjAddr: 0x3ED8, symBinAddr: 0xCC1C, symSize: 0x30 }
  - { offset: 0x4240C, size: 0x8, addend: 0x0, symName: '__ZN87_$LT$T$u20$as$u20$alloc..slice..$LT$impl$u20$$u5b$T$u5d$$GT$..to_vec_in..ConvertVec$GT$6to_vec17h1721159efe74042bE', symObjAddr: 0x61B0, symBinAddr: 0xD6AC, symSize: 0xF4 }
  - { offset: 0x426F9, size: 0x8, addend: 0x0, symName: '__ZN4core3ptr9const_ptr33_$LT$impl$u20$$BP$const$u20$T$GT$20offset_from_unsigned18precondition_check17h248f0be0d99ff585E', symObjAddr: 0xD0C, symBinAddr: 0xCCB0, symSize: 0x60 }
  - { offset: 0x42764, size: 0x8, addend: 0x0, symName: '__ZN4core3ptr9const_ptr33_$LT$impl$u20$$BP$const$u20$T$GT$7is_null17h9e769148c6245e31E', symObjAddr: 0xE48, symBinAddr: 0xCD10, symSize: 0x18 }
  - { offset: 0x4294A, size: 0x8, addend: 0x0, symName: '__ZN4core3num23_$LT$impl$u20$usize$GT$13unchecked_add18precondition_check17ha180cefd64a3d015E', symObjAddr: 0xB34, symBinAddr: 0xCC4C, symSize: 0x64 }
  - { offset: 0x43E3F, size: 0x8, addend: 0x0, symName: '__ZN4core3str21_$LT$impl$u20$str$GT$3len17h83d8963bc1751eedE', symObjAddr: 0x1044, symBinAddr: 0xCD28, symSize: 0x1C }
  - { offset: 0x4492D, size: 0x8, addend: 0x0, symName: __ZN8pyo3_ffi10modsupport15PyModule_Create17h178d63b9efe47622E, symObjAddr: 0x62A4, symBinAddr: 0xD7A0, symSize: 0x28 }
  - { offset: 0x44E29, size: 0x8, addend: 0x0, symName: '__ZN4pyo34sync8Interned3get28_$u7b$$u7b$closure$u7d$$u7d$17ha262a11c9279eadfE', symObjAddr: 0x537C, symBinAddr: 0xD580, symSize: 0x34 }
  - { offset: 0x44FFA, size: 0x8, addend: 0x0, symName: '__ZN4pyo34sync20GILOnceCell$LT$T$GT$11get_or_init28_$u7b$$u7b$closure$u7d$$u7d$17h6914ba84a6db61a6E', symObjAddr: 0x3748, symBinAddr: 0xCF04, symSize: 0x24 }
  - { offset: 0x45039, size: 0x8, addend: 0x0, symName: '__ZN4pyo34sync20GILOnceCell$LT$T$GT$11get_or_init28_$u7b$$u7b$closure$u7d$$u7d$17h8f346731b095a7f9E', symObjAddr: 0x376C, symBinAddr: 0xCF28, symSize: 0x34 }
  - { offset: 0x45331, size: 0x8, addend: 0x0, symName: __ZN4pyo35impl_10trampoline33panic_result_into_callback_output17h6e8edbe416bc2122E, symObjAddr: 0x5D20, symBinAddr: 0xD5B4, symSize: 0xF8 }
  - { offset: 0x45932, size: 0x8, addend: 0x0, symName: '__ZN4pyo34sync20GILOnceCell$LT$T$GT$11get_or_init17h8f1273a25d33b261E', symObjAddr: 0x3588, symBinAddr: 0xCD44, symSize: 0xE8 }
  - { offset: 0x45A1D, size: 0x8, addend: 0x0, symName: '__ZN4pyo34sync20GILOnceCell$LT$T$GT$11get_or_init17ha9e224fa721ef2e0E', symObjAddr: 0x3670, symBinAddr: 0xCE2C, symSize: 0xD8 }
  - { offset: 0x45B6B, size: 0x8, addend: 0x0, symName: '__ZN4pyo34sync20GILOnceCell$LT$T$GT$15get_or_try_init17hd5009d976afe3282E', symObjAddr: 0x393C, symBinAddr: 0xCF5C, symSize: 0xCC }
  - { offset: 0x45BF2, size: 0x8, addend: 0x0, symName: '__ZN4pyo34sync20GILOnceCell$LT$T$GT$3get17h17ce3c3ba5139a10E', symObjAddr: 0x3BB0, symBinAddr: 0xD028, symSize: 0x70 }
  - { offset: 0x45C36, size: 0x8, addend: 0x0, symName: '__ZN4pyo34sync20GILOnceCell$LT$T$GT$3get17h24a12dca14bd1156E', symObjAddr: 0x3C20, symBinAddr: 0xD098, symSize: 0x70 }
  - { offset: 0x45C7A, size: 0x8, addend: 0x0, symName: '__ZN4pyo34sync20GILOnceCell$LT$T$GT$3get17h4add25cba78bc542E', symObjAddr: 0x3C90, symBinAddr: 0xD108, symSize: 0x70 }
  - { offset: 0x45CF4, size: 0x8, addend: 0x0, symName: '__ZN4pyo34sync20GILOnceCell$LT$T$GT$3set17h0b4eb072bf9d60fcE', symObjAddr: 0x3E90, symBinAddr: 0xD178, symSize: 0x140 }
  - { offset: 0x45DAE, size: 0x8, addend: 0x0, symName: '__ZN4pyo34sync20GILOnceCell$LT$T$GT$3set17h11afbf8aeb11d4ebE', symObjAddr: 0x3FD0, symBinAddr: 0xD2B8, symSize: 0x140 }
  - { offset: 0x45E68, size: 0x8, addend: 0x0, symName: '__ZN4pyo34sync20GILOnceCell$LT$T$GT$3set17hacc4ab73c1ff1177E', symObjAddr: 0x44EC, symBinAddr: 0xD3F8, symSize: 0x140 }
  - { offset: 0x45F42, size: 0x8, addend: 0x0, symName: '__ZN4pyo34sync20GILOnceCell$LT$T$GT$4init17h03bb48361bbe2423E', symObjAddr: 0x47C4, symBinAddr: 0x41D24, symSize: 0x198 }
  - { offset: 0x46043, size: 0x8, addend: 0x0, symName: '__ZN4pyo34sync20GILOnceCell$LT$T$GT$4init17h399bba4d26727975E', symObjAddr: 0x4AE8, symBinAddr: 0x41EBC, symSize: 0x120 }
  - { offset: 0x460FA, size: 0x8, addend: 0x0, symName: '__ZN4pyo34sync20GILOnceCell$LT$T$GT$4init17h7e69c2dd0e5832c5E', symObjAddr: 0x4C08, symBinAddr: 0x41FDC, symSize: 0x11C }
  - { offset: 0x461C8, size: 0x8, addend: 0x0, symName: __ZN4pyo34sync8Interned3get17h3a9828c27d4f3362E, symObjAddr: 0x5334, symBinAddr: 0xD538, symSize: 0x48 }
  - { offset: 0x46515, size: 0x8, addend: 0x0, symName: '__ZN79_$LT$pyo3..types..string..PyString$u20$as$u20$pyo3..type_object..PyTypeInfo$GT$16is_type_of_bound17ha76c1193ea240973E', symObjAddr: 0x59DC, symBinAddr: 0xF1AC, symSize: 0x30 }
  - { offset: 0x46907, size: 0x8, addend: 0x0, symName: __ZN4pyo33err9err_state10raise_lazy17haa642b4cf1e86d04E, symObjAddr: 0x2A34, symBinAddr: 0xDF74, symSize: 0x148 }
  - { offset: 0x46994, size: 0x8, addend: 0x0, symName: '__ZN4pyo33err9err_state20PyErrStateNormalized10ptraceback28_$u7b$$u7b$closure$u7d$$u7d$17h2039415d629202adE', symObjAddr: 0x2BA8, symBinAddr: 0xE0E8, symSize: 0x34 }
  - { offset: 0x469EE, size: 0x8, addend: 0x0, symName: __ZN4pyo33err9err_state30lazy_into_normalized_ffi_tuple17he108126c22e49481E, symObjAddr: 0x2E14, symBinAddr: 0xE250, symSize: 0x84 }
  - { offset: 0x46A8F, size: 0x8, addend: 0x0, symName: '__ZN58_$LT$T$u20$as$u20$pyo3..err..err_state..PyErrArguments$GT$9arguments17h019ea3477014cb2aE', symObjAddr: 0x556C, symBinAddr: 0xF050, symSize: 0x28 }
  - { offset: 0x46ADD, size: 0x8, addend: 0x0, symName: '__ZN58_$LT$T$u20$as$u20$pyo3..err..err_state..PyErrArguments$GT$9arguments17h8c35b65e0468927cE', symObjAddr: 0x5594, symBinAddr: 0xF078, symSize: 0x28 }
  - { offset: 0x46C10, size: 0x8, addend: 0x0, symName: '__ZN79_$LT$pyo3..exceptions..PyTypeError$u20$as$u20$pyo3..type_object..PyTypeInfo$GT$15type_object_raw17hcbf7d72d09575636E', symObjAddr: 0x5930, symBinAddr: 0xF13C, symSize: 0x24 }
  - { offset: 0x46C4F, size: 0x8, addend: 0x0, symName: '__ZN79_$LT$pyo3..exceptions..PyTypeError$u20$as$u20$pyo3..type_object..PyTypeInfo$GT$15type_object_raw28_$u7b$$u7b$closure$u7d$$u7d$17hf9b53a3ae2a25c4eE', symObjAddr: 0x5954, symBinAddr: 0xF160, symSize: 0x4C }
  - { offset: 0x46CA2, size: 0x8, addend: 0x0, symName: '__ZN81_$LT$pyo3..exceptions..PyImportError$u20$as$u20$pyo3..type_object..PyTypeInfo$GT$15type_object_raw17hf2cd495f13cd3303E', symObjAddr: 0x5AAC, symBinAddr: 0xF1DC, symSize: 0x24 }
  - { offset: 0x46CE1, size: 0x8, addend: 0x0, symName: '__ZN81_$LT$pyo3..exceptions..PyImportError$u20$as$u20$pyo3..type_object..PyTypeInfo$GT$15type_object_raw28_$u7b$$u7b$closure$u7d$$u7d$17h89b027b9152743f6E', symObjAddr: 0x5AD0, symBinAddr: 0xF200, symSize: 0x4C }
  - { offset: 0x46D34, size: 0x8, addend: 0x0, symName: '__ZN83_$LT$pyo3..exceptions..PyBaseException$u20$as$u20$pyo3..type_object..PyTypeInfo$GT$15type_object_raw17h92a1dd5090aaebc0E', symObjAddr: 0x5C2C, symBinAddr: 0xF24C, symSize: 0x24 }
  - { offset: 0x46D73, size: 0x8, addend: 0x0, symName: '__ZN83_$LT$pyo3..exceptions..PyBaseException$u20$as$u20$pyo3..type_object..PyTypeInfo$GT$15type_object_raw28_$u7b$$u7b$closure$u7d$$u7d$17h9869bf39ba417249E', symObjAddr: 0x5C50, symBinAddr: 0xF270, symSize: 0x4C }
  - { offset: 0x46DC6, size: 0x8, addend: 0x0, symName: '__ZN84_$LT$pyo3..exceptions..PyAttributeError$u20$as$u20$pyo3..type_object..PyTypeInfo$GT$15type_object_raw17h2b86e23ba126fdc6E', symObjAddr: 0x5D3C, symBinAddr: 0xF2BC, symSize: 0x24 }
  - { offset: 0x46E05, size: 0x8, addend: 0x0, symName: '__ZN84_$LT$pyo3..exceptions..PyAttributeError$u20$as$u20$pyo3..type_object..PyTypeInfo$GT$15type_object_raw28_$u7b$$u7b$closure$u7d$$u7d$17hdec8d7107a968bdcE', symObjAddr: 0x5D60, symBinAddr: 0xF2E0, symSize: 0x4C }
  - { offset: 0x46E7C, size: 0x8, addend: 0x0, symName: __ZN4pyo33gil4POOL17habc1316b446d1cd5E, symObjAddr: 0x8A78, symBinAddr: 0x68360, symSize: 0x0 }
  - { offset: 0x46EE9, size: 0x8, addend: 0x0, symName: __ZN4pyo33gil5START17h9287f439ee43b044E, symObjAddr: 0x8AB8, symBinAddr: 0x683A0, symSize: 0x0 }
  - { offset: 0x46F12, size: 0x8, addend: 0x0, symName: '__ZN4pyo33gil9GIL_COUNT29_$u7b$$u7b$constant$u7d$$u7d$28_$u7b$$u7b$closure$u7d$$u7d$23__RUST_STD_INTERNAL_VAL17h1b9e3a780009ba48E', symObjAddr: 0x8AE4, symBinAddr: 0x68D48, symSize: 0x0 }
  - { offset: 0x46F21, size: 0x8, addend: 0x0, symName: '__ZN4pyo33gil9GIL_COUNT29_$u7b$$u7b$constant$u7d$$u7d$28_$u7b$$u7b$closure$u7d$$u7d$17heacfa1bb41424dafE', symObjAddr: 0x3AA0, symBinAddr: 0xED98, symSize: 0x30 }
  - { offset: 0x46FED, size: 0x8, addend: 0x0, symName: '__ZN4pyo33gil15gil_is_acquired28_$u7b$$u7b$closure$u7d$$u7d$17ha437e191f44f790dE', symObjAddr: 0x3438, symBinAddr: 0xE80C, symSize: 0x2C }
  - { offset: 0x4703B, size: 0x8, addend: 0x0, symName: __ZN4pyo33gil15register_decref17h109e759ae6dcce9fE, symObjAddr: 0x3464, symBinAddr: 0xE838, symSize: 0x184 }
  - { offset: 0x4709D, size: 0x8, addend: 0x0, symName: '__ZN4pyo33gil19decrement_gil_count28_$u7b$$u7b$closure$u7d$$u7d$17h86fef0bad28686aaE', symObjAddr: 0x35E8, symBinAddr: 0xE9BC, symSize: 0x8C }
  - { offset: 0x470F5, size: 0x8, addend: 0x0, symName: '__ZN4pyo33gil19increment_gil_count28_$u7b$$u7b$closure$u7d$$u7d$17h47c46f8f4744660aE', symObjAddr: 0x3674, symBinAddr: 0xEA48, symSize: 0x74 }
  - { offset: 0x47148, size: 0x8, addend: 0x0, symName: __ZN4pyo33gil27prepare_freethreaded_python17h9b12ce042c6f9209E, symObjAddr: 0x36E8, symBinAddr: 0xEABC, symSize: 0x1C }
  - { offset: 0x47166, size: 0x8, addend: 0x0, symName: '__ZN4pyo33gil27prepare_freethreaded_python28_$u7b$$u7b$closure$u7d$$u7d$17h8e7a3cb33ca315b0E', symObjAddr: 0x3704, symBinAddr: 0xEAD8, symSize: 0x38 }
  - { offset: 0x47200, size: 0x8, addend: 0x0, symName: '__ZN4pyo33gil8GILGuard7acquire28_$u7b$$u7b$closure$u7d$$u7d$17h55a49656684cb6b6E', symObjAddr: 0x3A10, symBinAddr: 0xED08, symSize: 0x90 }
  - { offset: 0x4728A, size: 0x8, addend: 0x0, symName: '__ZN61_$LT$pyo3..gil..GILGuard$u20$as$u20$core..ops..drop..Drop$GT$4drop17h56bccc8d1f51bac1E', symObjAddr: 0x5624, symBinAddr: 0xF0A0, symSize: 0x5C }
  - { offset: 0x47306, size: 0x8, addend: 0x0, symName: __ZN4pyo35panic14PanicException15type_object_raw11TYPE_OBJECT17hefa7e388680de193E, symObjAddr: 0x38A60, symBinAddr: 0x68E50, symSize: 0x0 }
  - { offset: 0x47313, size: 0x8, addend: 0x0, symName: '__ZN4pyo35panic14PanicException15type_object_raw28_$u7b$$u7b$closure$u7d$$u7d$17h3e73bfe2cf2b0e01E', symObjAddr: 0x444C, symBinAddr: 0xEDF4, symSize: 0xB4 }
  - { offset: 0x473E3, size: 0x8, addend: 0x0, symName: '__ZN77_$LT$pyo3..panic..PanicException$u20$as$u20$pyo3..type_object..PyTypeInfo$GT$15type_object_raw17h656e71179436989aE', symObjAddr: 0x58C0, symBinAddr: 0xF0FC, symSize: 0x1C }
  - { offset: 0x47465, size: 0x8, addend: 0x0, symName: __ZN4pyo311type_object10PyTypeInfo17type_object_bound17h02942bba8907ff91E, symObjAddr: 0x1E84, symBinAddr: 0xD938, symSize: 0x30 }
  - { offset: 0x474A5, size: 0x8, addend: 0x0, symName: __ZN4pyo311type_object10PyTypeInfo17type_object_bound17h1a105de04ff63358E, symObjAddr: 0x1EE4, symBinAddr: 0xD968, symSize: 0x30 }
  - { offset: 0x474E5, size: 0x8, addend: 0x0, symName: __ZN4pyo311type_object10PyTypeInfo17type_object_bound17h2fb8896c71d4292eE, symObjAddr: 0x1F44, symBinAddr: 0xD998, symSize: 0x30 }
  - { offset: 0x47525, size: 0x8, addend: 0x0, symName: __ZN4pyo311type_object10PyTypeInfo17type_object_bound17h901b8f525ecbd5f0E, symObjAddr: 0x20C4, symBinAddr: 0xD9C8, symSize: 0x30 }
  - { offset: 0x47565, size: 0x8, addend: 0x0, symName: __ZN4pyo311type_object10PyTypeInfo17type_object_bound17hf431cc752f88718cE, symObjAddr: 0x2214, symBinAddr: 0xD9F8, symSize: 0x30 }
  - { offset: 0x475AB, size: 0x8, addend: 0x0, symName: '__ZN52_$LT$T$u20$as$u20$pyo3..type_object..PyTypeCheck$GT$10type_check17h455b88c676925985E', symObjAddr: 0x54A8, symBinAddr: 0xF02C, symSize: 0x24 }
  - { offset: 0x48F74, size: 0x8, addend: 0x0, symName: __ZN4core4hint21unreachable_unchecked18precondition_check17h478ffdb38d7d80baE, symObjAddr: 0x3C0, symBinAddr: 0xD7C8, symSize: 0x3C }
  - { offset: 0x48FDB, size: 0x8, addend: 0x0, symName: __ZN4core9ub_checks23maybe_is_nonoverlapping7runtime17h468089e90b524ef9E, symObjAddr: 0x44C, symBinAddr: 0xD804, symSize: 0xD8 }
  - { offset: 0x49AD7, size: 0x8, addend: 0x0, symName: __ZN8pyo3_ffi8pyerrors22PyExceptionClass_Check17ha785bed49ac7aed5E, symObjAddr: 0x64F8, symBinAddr: 0xF32C, symSize: 0x60 }
  - { offset: 0x4A78A, size: 0x8, addend: 0x0, symName: '__ZN78_$LT$once_cell..sync..Lazy$LT$T$C$F$GT$$u20$as$u20$core..ops..deref..Deref$GT$5deref17h4a716bb262b13e75E', symObjAddr: 0x590C, symBinAddr: 0xF118, symSize: 0x24 }
  - { offset: 0x4A7D5, size: 0x8, addend: 0x0, symName: '__ZN9once_cell4sync17Lazy$LT$T$C$F$GT$5force28_$u7b$$u7b$closure$u7d$$u7d$17h4cf953df9452fe46E', symObjAddr: 0x6B58, symBinAddr: 0xF3DC, symSize: 0x70 }
  - { offset: 0x4A854, size: 0x8, addend: 0x0, symName: '__ZN9once_cell4sync17OnceCell$LT$T$GT$11get_or_init28_$u7b$$u7b$closure$u7d$$u7d$17hd64e38723b940a21E', symObjAddr: 0x6BFC, symBinAddr: 0xF480, symSize: 0x44 }
  - { offset: 0x4AA78, size: 0x8, addend: 0x0, symName: __ZN4pyo310exceptions11PyTypeError7new_err17h7be979fe7543459cE, symObjAddr: 0x54C, symBinAddr: 0xD8DC, symSize: 0x34 }
  - { offset: 0x4AAA4, size: 0x8, addend: 0x0, symName: __ZN4pyo310exceptions13PyImportError7new_err17h683c582495f59e7eE, symObjAddr: 0x6F8, symBinAddr: 0xD910, symSize: 0x28 }
  - { offset: 0x4AB01, size: 0x8, addend: 0x0, symName: __ZN4pyo33err9err_state10PyErrState7restore17h8c8c058b74c5ca99E, symObjAddr: 0x24E8, symBinAddr: 0xDA28, symSize: 0x308 }
  - { offset: 0x4AC3F, size: 0x8, addend: 0x0, symName: __ZN4pyo33err9err_state10PyErrState9normalize17h0cc070039ffdc5fcE, symObjAddr: 0x27F0, symBinAddr: 0xDD30, symSize: 0x244 }
  - { offset: 0x4ADA7, size: 0x8, addend: 0x0, symName: __ZN4pyo33err9err_state20PyErrStateNormalized10ptraceback17hf0548f0766de8972E, symObjAddr: 0x2B7C, symBinAddr: 0xE0BC, symSize: 0x2C }
  - { offset: 0x4ADE2, size: 0x8, addend: 0x0, symName: __ZN4pyo33err9err_state20PyErrStateNormalized25from_normalized_ffi_tuple17h1b80d7816288b13fE, symObjAddr: 0x2BDC, symBinAddr: 0xE11C, symSize: 0x10C }
  - { offset: 0x4AE39, size: 0x8, addend: 0x0, symName: __ZN4pyo33err9err_state20PyErrStateNormalized5ptype17h8dddc81ad37af52eE, symObjAddr: 0x2CE8, symBinAddr: 0xE228, symSize: 0x28 }
  - { offset: 0x4AEE0, size: 0x8, addend: 0x0, symName: __ZN4pyo33gil13ReferencePool13update_counts17h85395b9417d195c3E, symObjAddr: 0x2F00, symBinAddr: 0xE2D4, symSize: 0x3C4 }
  - { offset: 0x4AFEC, size: 0x8, addend: 0x0, symName: __ZN4pyo33gil13ReferencePool15register_decref17h3e05e563e965f3ddE, symObjAddr: 0x32C4, symBinAddr: 0xE698, symSize: 0x128 }
  - { offset: 0x4B058, size: 0x8, addend: 0x0, symName: __ZN4pyo33gil13ReferencePool3new17hbe8192910c51c627E, symObjAddr: 0x33EC, symBinAddr: 0xE7C0, symSize: 0x4C }
  - { offset: 0x4B06B, size: 0x8, addend: 0x0, symName: __ZN4pyo33gil7LockGIL4bail17h27942e0b0e752f2cE, symObjAddr: 0x37BC, symBinAddr: 0x420F8, symSize: 0x5C }
  - { offset: 0x4B08E, size: 0x8, addend: 0x0, symName: __ZN4pyo33gil8GILGuard17acquire_unchecked17h52301e32bddda142E, symObjAddr: 0x3818, symBinAddr: 0xEB10, symSize: 0xAC }
  - { offset: 0x4B0F4, size: 0x8, addend: 0x0, symName: __ZN4pyo33gil8GILGuard6assume17h92144e2819d7cb8aE, symObjAddr: 0x38C4, symBinAddr: 0xEBBC, symSize: 0xB0 }
  - { offset: 0x4B146, size: 0x8, addend: 0x0, symName: __ZN4pyo33gil8GILGuard6python17h817ca83c31f90f9fE, symObjAddr: 0x3974, symBinAddr: 0xEC6C, symSize: 0x20 }
  - { offset: 0x4B168, size: 0x8, addend: 0x0, symName: __ZN4pyo33gil8GILGuard7acquire17h4e616e50283f14a3E, symObjAddr: 0x3994, symBinAddr: 0xEC8C, symSize: 0x7C }
  - { offset: 0x4B190, size: 0x8, addend: 0x0, symName: __ZN4pyo35panic14PanicException15type_object_raw17h53c6c58ce92e4617E, symObjAddr: 0x4420, symBinAddr: 0xEDC8, symSize: 0x2C }
  - { offset: 0x4B1ED, size: 0x8, addend: 0x0, symName: __ZN4pyo35panic14PanicException18from_panic_payload17h5399986f8d1af699E, symObjAddr: 0x4500, symBinAddr: 0x42154, symSize: 0x144 }
  - { offset: 0x4B24C, size: 0x8, addend: 0x0, symName: __ZN4pyo35panic14PanicException7new_err17h36d7b9b5982bfed8E, symObjAddr: 0x4644, symBinAddr: 0xEEA8, symSize: 0x28 }
  - { offset: 0x4B28A, size: 0x8, addend: 0x0, symName: __ZN4pyo35panic14PanicException7new_err17head62d35edc795d0E, symObjAddr: 0x466C, symBinAddr: 0xEED0, symSize: 0x34 }
  - { offset: 0x4B2B6, size: 0x8, addend: 0x0, symName: __ZN4pyo35types10typeobject6PyType22from_borrowed_type_ptr17h9e670ac1da83d959E, symObjAddr: 0x46A0, symBinAddr: 0xEF04, symSize: 0x34 }
  - { offset: 0x4B2F1, size: 0x8, addend: 0x0, symName: __ZN4pyo35types6string8PyString12intern_bound17hbfdeba2205aa5e3bE, symObjAddr: 0x50E0, symBinAddr: 0xEF38, symSize: 0x8C }
  - { offset: 0x4B390, size: 0x8, addend: 0x0, symName: __ZN4pyo35types6string8PyString9new_bound17h8859ac8230bde505E, symObjAddr: 0x5220, symBinAddr: 0xEFC4, symSize: 0x68 }
  - { offset: 0x4B44A, size: 0x8, addend: 0x0, symName: '__ZN9once_cell4sync17Lazy$LT$T$C$F$GT$3get17hb6f0051607a29ae1E', symObjAddr: 0x6B08, symBinAddr: 0xF38C, symSize: 0x24 }
  - { offset: 0x4B47F, size: 0x8, addend: 0x0, symName: '__ZN9once_cell4sync17Lazy$LT$T$C$F$GT$5force17h15252207c230ef3fE', symObjAddr: 0x6B2C, symBinAddr: 0xF3B0, symSize: 0x2C }
  - { offset: 0x4B4C1, size: 0x8, addend: 0x0, symName: '__ZN9once_cell4sync17OnceCell$LT$T$GT$11get_or_init17h889b178dfe0f5113E', symObjAddr: 0x6BC8, symBinAddr: 0xF44C, symSize: 0x34 }
  - { offset: 0x4B505, size: 0x8, addend: 0x0, symName: '__ZN9once_cell4sync17OnceCell$LT$T$GT$13get_unchecked17h095fc641b3a5a5e1E', symObjAddr: 0x6C40, symBinAddr: 0xF4C4, symSize: 0x24 }
  - { offset: 0x4B531, size: 0x8, addend: 0x0, symName: '__ZN9once_cell4sync17OnceCell$LT$T$GT$15get_or_try_init17hfccd87574fb8396aE', symObjAddr: 0x6C64, symBinAddr: 0xF4E8, symSize: 0x128 }
  - { offset: 0x4B594, size: 0x8, addend: 0x0, symName: '__ZN9once_cell4sync17OnceCell$LT$T$GT$3get17h46d18e9bd18816b6E', symObjAddr: 0x6D8C, symBinAddr: 0xF610, symSize: 0x4C }
  - { offset: 0x4C876, size: 0x8, addend: 0x0, symName: '__ZN118_$LT$$u5b$core..mem..maybe_uninit..MaybeUninit$LT$T$GT$$u5d$$u20$as$u20$core..array..iter..iter_inner..PartialDrop$GT$12partial_drop17hfb9d61758345337cE', symObjAddr: 0xA48, symBinAddr: 0xF6F8, symSize: 0xA0 }
  - { offset: 0x4C976, size: 0x8, addend: 0x0, symName: '__ZN129_$LT$$u5b$core..mem..maybe_uninit..MaybeUninit$LT$T$GT$$u3b$$u20$N$u5d$$u20$as$u20$core..array..iter..iter_inner..PartialDrop$GT$12partial_drop17h17724de7b77944fbE', symObjAddr: 0xBEC, symBinAddr: 0xF798, symSize: 0x4C }
  - { offset: 0x4CD79, size: 0x8, addend: 0x0, symName: '__ZN31_$LT$dyn$u20$core..any..Any$GT$12downcast_ref17ha572fbde25f711a1E', symObjAddr: 0xC84, symBinAddr: 0xF7E4, symSize: 0xA4 }
  - { offset: 0x4CE6A, size: 0x8, addend: 0x0, symName: '__ZN31_$LT$dyn$u20$core..any..Any$GT$12downcast_ref17hd4322a2dbcac029bE', symObjAddr: 0xD28, symBinAddr: 0xF888, symSize: 0xA4 }
  - { offset: 0x4CFD5, size: 0x8, addend: 0x0, symName: '__ZN54_$LT$dyn$u20$core..any..Any$u2b$core..marker..Send$GT$12downcast_ref17h941fce3dc04754d4E', symObjAddr: 0x72AC, symBinAddr: 0xFBD0, symSize: 0x2C }
  - { offset: 0x4D00C, size: 0x8, addend: 0x0, symName: '__ZN54_$LT$dyn$u20$core..any..Any$u2b$core..marker..Send$GT$12downcast_ref17ha9772e0c35121e6cE', symObjAddr: 0x72D8, symBinAddr: 0xFBFC, symSize: 0x2C }
  - { offset: 0x4D0FE, size: 0x8, addend: 0x0, symName: __ZN4core3str8converts19from_utf8_unchecked17h15f28c981589eefdE, symObjAddr: 0x129C, symBinAddr: 0xF92C, symSize: 0x18 }
  - { offset: 0x4D48A, size: 0x8, addend: 0x0, symName: '__ZN4pyo35types5tuple125_$LT$impl$u20$pyo3..conversion..IntoPy$LT$pyo3..instance..Py$LT$pyo3..types..any..PyAny$GT$$GT$$u20$for$u20$$LP$T0$C$$RP$$GT$7into_py17hbe7f712fe2ab27daE', symObjAddr: 0x3090, symBinAddr: 0xF974, symSize: 0x48 }
  - { offset: 0x4D4DD, size: 0x8, addend: 0x0, symName: __ZN4pyo35types5tuple16array_into_tuple17h1f1e7a5120aad7caE, symObjAddr: 0x3E38, symBinAddr: 0xF9BC, symSize: 0x1F0 }
  - { offset: 0x4D607, size: 0x8, addend: 0x0, symName: '__ZN107_$LT$pyo3..instance..Bound$LT$pyo3..types..list..PyList$GT$$u20$as$u20$pyo3..types..list..PyListMethods$GT$6append5inner17hd3eac274ccb84d40E', symObjAddr: 0x790, symBinAddr: 0xF65C, symSize: 0x9C }
  - { offset: 0x4D675, size: 0x8, addend: 0x0, symName: '__ZN75_$LT$pyo3..types..list..PyList$u20$as$u20$pyo3..type_object..PyTypeInfo$GT$16is_type_of_bound17hb71bd330686a3018E', symObjAddr: 0x7540, symBinAddr: 0xFC28, symSize: 0x30 }
  - { offset: 0x4D75B, size: 0x8, addend: 0x0, symName: '__ZN52_$LT$T$u20$as$u20$pyo3..type_object..PyTypeCheck$GT$10type_check17h7826a3374dcb81ceE', symObjAddr: 0x7288, symBinAddr: 0xFBAC, symSize: 0x24 }
  - { offset: 0x4DD93, size: 0x8, addend: 0x0, symName: __ZN8pyo3_ffi7cpython11tupleobject16PyTuple_SET_ITEM17ha3f4a3638d3a49e4E, symObjAddr: 0x78D0, symBinAddr: 0xFC88, symSize: 0x118 }
  - { offset: 0x4DFCD, size: 0x8, addend: 0x0, symName: __ZN8pyo3_ffi10listobject12PyList_Check17h98263093de697ff7E, symObjAddr: 0x7648, symBinAddr: 0xFC58, symSize: 0x30 }
  - { offset: 0x4E766, size: 0x8, addend: 0x0, symName: __ZN4pyo35types4list6PyList11empty_bound17h42a8dad834f4ab5aE, symObjAddr: 0x3060, symBinAddr: 0xF944, symSize: 0x30 }
  - { offset: 0x4F845, size: 0x8, addend: 0x0, symName: '__ZN4core7convert3num71_$LT$impl$u20$core..convert..TryFrom$LT$usize$GT$$u20$for$u20$isize$GT$8try_from17hf8b619008102df0cE', symObjAddr: 0x28F8, symBinAddr: 0x1004C, symSize: 0x5C }
  - { offset: 0x4F9F8, size: 0x8, addend: 0x0, symName: __ZN4pyo35types6module7__all__8INTERNED17h853c57031c5c8840E, symObjAddr: 0x5458, symBinAddr: 0x683A8, symSize: 0x0 }
  - { offset: 0x4FA19, size: 0x8, addend: 0x0, symName: __ZN4pyo35types6module8__name__8INTERNED17h4cc387cd9c7ab20bE, symObjAddr: 0x5470, symBinAddr: 0x683C0, symSize: 0x0 }
  - { offset: 0x4FA31, size: 0x8, addend: 0x0, symName: '__ZN115_$LT$pyo3..instance..Bound$LT$pyo3..types..module..PyModule$GT$$u20$as$u20$pyo3..types..module..PyModuleMethods$GT$3add5inner17hd11b91284e72c8faE', symObjAddr: 0xD38, symBinAddr: 0xFDA0, symSize: 0x264 }
  - { offset: 0x4FB56, size: 0x8, addend: 0x0, symName: __ZN4pyo35types6module7__all__17h7f2c9fdf3c3546c1E, symObjAddr: 0x2EA8, symBinAddr: 0x103DC, symSize: 0x24 }
  - { offset: 0x4FB90, size: 0x8, addend: 0x0, symName: __ZN4pyo35types6module8__name__17h3ebcfd5151d79b97E, symObjAddr: 0x3550, symBinAddr: 0x10400, symSize: 0x24 }
  - { offset: 0x5011E, size: 0x8, addend: 0x0, symName: '__ZN4pyo35impl_8pymodule9ModuleDef11make_module28_$u7b$$u7b$closure$u7d$$u7d$17h1ca08aaa5b59f9ffE', symObjAddr: 0x2BAC, symBinAddr: 0x1021C, symSize: 0x30 }
  - { offset: 0x50163, size: 0x8, addend: 0x0, symName: '__ZN4pyo35impl_8pymodule9ModuleDef11make_module28_$u7b$$u7b$closure$u7d$$u7d$17h2e461dd9f28da289E', symObjAddr: 0x2BDC, symBinAddr: 0x1024C, symSize: 0x190 }
  - { offset: 0x50239, size: 0x8, addend: 0x0, symName: '__ZN152_$LT$core..result..Result$LT$pyo3..instance..Bound$LT$pyo3..types..any..PyAny$GT$$C$pyo3..err..PyErr$GT$$u20$as$u20$pyo3..py_result_ext..PyResultExt$GT$23downcast_into_unchecked28_$u7b$$u7b$closure$u7d$$u7d$17hb37252176b7b61c6E', symObjAddr: 0x1260, symBinAddr: 0x10004, symSize: 0x24 }
  - { offset: 0x50278, size: 0x8, addend: 0x0, symName: '__ZN152_$LT$core..result..Result$LT$pyo3..instance..Bound$LT$pyo3..types..any..PyAny$GT$$C$pyo3..err..PyErr$GT$$u20$as$u20$pyo3..py_result_ext..PyResultExt$GT$23downcast_into_unchecked28_$u7b$$u7b$closure$u7d$$u7d$17hc3c0e22361e57a56E', symObjAddr: 0x1284, symBinAddr: 0x10028, symSize: 0x24 }
  - { offset: 0x510A2, size: 0x8, addend: 0x0, symName: __ZN4pyo35impl_8pymodule9ModuleDef11make_module17hfcfb16b29d21a273E, symObjAddr: 0x2A38, symBinAddr: 0x100A8, symSize: 0x174 }
  - { offset: 0x52027, size: 0x8, addend: 0x0, symName: __ZN4core3ptr19copy_nonoverlapping18precondition_check17h197be7f383c39ad8E, symObjAddr: 0x1230, symBinAddr: 0x1047C, symSize: 0x168 }
  - { offset: 0x52311, size: 0x8, addend: 0x0, symName: __ZN4core4iter6traits8iterator8Iterator9enumerate17hbda02f69d12cc49cE, symObjAddr: 0x1C08, symBinAddr: 0x105E4, symSize: 0x18 }
  - { offset: 0x52342, size: 0x8, addend: 0x0, symName: __ZN4core4iter6traits8iterator8Iterator9enumerate17hbda02f69d12cc49cE, symObjAddr: 0x1C08, symBinAddr: 0x105E4, symSize: 0x18 }
  - { offset: 0x52400, size: 0x8, addend: 0x0, symName: '__ZN82_$LT$core..array..iter..IntoIter$LT$T$C$_$GT$$u20$as$u20$core..ops..drop..Drop$GT$4drop17hc8ed81fb88a61627E', symObjAddr: 0x538C, symBinAddr: 0x106B0, symSize: 0x30 }
  - { offset: 0x52457, size: 0x8, addend: 0x0, symName: '__ZN99_$LT$core..array..iter..IntoIter$LT$T$C$_$GT$$u20$as$u20$core..iter..traits..iterator..Iterator$GT$4next17h4d6915578f48bc3cE', symObjAddr: 0x5600, symBinAddr: 0x106E0, symSize: 0x2C }
  - { offset: 0x53E2C, size: 0x8, addend: 0x0, symName: '__ZN77_$LT$alloc..raw_vec..RawVec$LT$T$C$A$GT$$u20$as$u20$core..ops..drop..Drop$GT$4drop17h7c45530550e24cb5E', symObjAddr: 0x524C, symBinAddr: 0x10680, symSize: 0x30 }
  - { offset: 0x53F21, size: 0x8, addend: 0x0, symName: __ZN4core3fmt2rt8Argument11new_display17h01e1db4228bcad9fE, symObjAddr: 0xD10, symBinAddr: 0x10424, symSize: 0x2C }
  - { offset: 0x53F59, size: 0x8, addend: 0x0, symName: __ZN4core3fmt2rt8Argument11new_display17h0b1126b3cea3f9cbE, symObjAddr: 0xD3C, symBinAddr: 0x10450, symSize: 0x2C }
  - { offset: 0x540C1, size: 0x8, addend: 0x0, symName: '__ZN5alloc7raw_vec19RawVec$LT$T$C$A$GT$8grow_one17hc264b5bdb34f43ddE', symObjAddr: 0x49FC, symBinAddr: 0x105FC, symSize: 0x84 }
  - { offset: 0x5421F, size: 0x8, addend: 0x0, symName: '__ZN4pyo35types5tuple125_$LT$impl$u20$pyo3..conversion..IntoPy$LT$pyo3..instance..Py$LT$pyo3..types..any..PyAny$GT$$GT$$u20$for$u20$$LP$T0$C$$RP$$GT$7into_py17hb0ead85ddbdb166bE', symObjAddr: 0x2070, symBinAddr: 0x10E08, symSize: 0x54 }
  - { offset: 0x5432D, size: 0x8, addend: 0x0, symName: '__ZN4pyo311conversions3std6string133_$LT$impl$u20$pyo3..conversion..IntoPy$LT$pyo3..instance..Py$LT$pyo3..types..any..PyAny$GT$$GT$$u20$for$u20$alloc..string..String$GT$7into_py17hc3830cf44f8e9ddfE', symObjAddr: 0x1B28, symBinAddr: 0x10D48, symSize: 0x8C }
  - { offset: 0x54379, size: 0x8, addend: 0x0, symName: '__ZN4pyo311conversions3std6string80_$LT$impl$u20$pyo3..conversion..ToPyObject$u20$for$u20$alloc..string..String$GT$9to_object17h9f98bdbd8f2df4d7E', symObjAddr: 0x1BB4, symBinAddr: 0x10DD4, symSize: 0x34 }
  - { offset: 0x543D1, size: 0x8, addend: 0x0, symName: '__ZN58_$LT$T$u20$as$u20$pyo3..err..err_state..PyErrArguments$GT$9arguments17h28fde9b7cc6434aaE', symObjAddr: 0x2F04, symBinAddr: 0x10F00, symSize: 0x34 }
  - { offset: 0x559B3, size: 0x8, addend: 0x0, symName: '__ZN36_$LT$T$u20$as$u20$core..any..Any$GT$7type_id17hba97a4a4230ff0e7E', symObjAddr: 0x2D0, symBinAddr: 0x1070C, symSize: 0x20 }
  - { offset: 0x56085, size: 0x8, addend: 0x0, symName: __ZN4core5slice3raw14from_raw_parts17hd27bfb1c56b32a85E, symObjAddr: 0xD5C, symBinAddr: 0x10BE4, symSize: 0x58 }
  - { offset: 0x560CD, size: 0x8, addend: 0x0, symName: __ZN4core5slice3raw14from_raw_parts18precondition_check17he17ac189671a148bE, symObjAddr: 0xE0C, symBinAddr: 0x10C3C, symSize: 0x10C }
  - { offset: 0x562E5, size: 0x8, addend: 0x0, symName: '__ZN50_$LT$T$u20$as$u20$core..convert..Into$LT$U$GT$$GT$4into17h97ce84838a9f5538E', symObjAddr: 0x2D8C, symBinAddr: 0x10E5C, symSize: 0x28 }
  - { offset: 0x5632B, size: 0x8, addend: 0x0, symName: '__ZN53_$LT$T$u20$as$u20$core..convert..TryInto$LT$U$GT$$GT$8try_into17hc78d202935c92159E', symObjAddr: 0x2E88, symBinAddr: 0x10E84, symSize: 0x20 }
  - { offset: 0x56A81, size: 0x8, addend: 0x0, symName: __ZN8pyo3_ffi12methodobject17PyCFunction_NewEx17h207e958a38620ca8E, symObjAddr: 0x414C, symBinAddr: 0x113F4, symSize: 0x38 }
  - { offset: 0x56FF7, size: 0x8, addend: 0x0, symName: '__ZN3std4sync4once4Once15call_once_force28_$u7b$$u7b$closure$u7d$$u7d$17h33f1e21adf8b8cf6E', symObjAddr: 0x498, symBinAddr: 0x108D4, symSize: 0x68 }
  - { offset: 0x57089, size: 0x8, addend: 0x0, symName: '__ZN3std4sync4once4Once15call_once_force28_$u7b$$u7b$closure$u7d$$u7d$17h86eb5e485ac225c3E', symObjAddr: 0x500, symBinAddr: 0x1093C, symSize: 0x68 }
  - { offset: 0x5718B, size: 0x8, addend: 0x0, symName: __ZN3std4sync6poison10map_result17h6576100e7d0670f0E, symObjAddr: 0x568, symBinAddr: 0x109A4, symSize: 0xC4 }
  - { offset: 0x572AC, size: 0x8, addend: 0x0, symName: '__ZN76_$LT$std..sync..poison..PoisonError$LT$T$GT$$u20$as$u20$core..fmt..Debug$GT$3fmt17h27999693cdf730acE', symObjAddr: 0x3D10, symBinAddr: 0x113A4, symSize: 0x50 }
  - { offset: 0x575E8, size: 0x8, addend: 0x0, symName: '__ZN45_$LT$T$u20$as$u20$alloc..string..ToString$GT$9to_string17h5f7d3d3d650dc326E', symObjAddr: 0x7A8, symBinAddr: 0x10BC0, symSize: 0x24 }
  - { offset: 0x57643, size: 0x8, addend: 0x0, symName: '__ZN76_$LT$alloc..string..String$u20$as$u20$core..convert..From$LT$$RF$str$GT$$GT$4from17heffbcc651ff0ca7bE', symObjAddr: 0x3CC0, symBinAddr: 0x11354, symSize: 0x50 }
  - { offset: 0x57730, size: 0x8, addend: 0x0, symName: '__ZN55_$LT$$RF$str$u20$as$u20$alloc..string..SpecToString$GT$14spec_to_string17h2f73d67eba02c223E', symObjAddr: 0x2EA8, symBinAddr: 0x10EA4, symSize: 0x5C }
  - { offset: 0x578A4, size: 0x8, addend: 0x0, symName: '__ZN65_$LT$alloc..string..String$u20$as$u20$core..ops..deref..Deref$GT$5deref17he888ac92461981ccE', symObjAddr: 0x3ADC, symBinAddr: 0x11334, symSize: 0x20 }
  - { offset: 0x57963, size: 0x8, addend: 0x0, symName: '__ZN60_$LT$alloc..string..String$u20$as$u20$core..fmt..Display$GT$3fmt17hb5cc039b656eca49E', symObjAddr: 0x3930, symBinAddr: 0x112A0, symSize: 0x3C }
  - { offset: 0x57CE4, size: 0x8, addend: 0x0, symName: '__ZN63_$LT$alloc..alloc..Global$u20$as$u20$core..alloc..Allocator$GT$10deallocate17h59d8da551bfccbbaE', symObjAddr: 0x39F0, symBinAddr: 0x112DC, symSize: 0x58 }
  - { offset: 0x57DB3, size: 0x8, addend: 0x0, symName: __ZN5alloc5alloc15exchange_malloc17h9c5b7d7cfa74b182E, symObjAddr: 0x30FC, symBinAddr: 0x1105C, symSize: 0xB0 }
  - { offset: 0x5807A, size: 0x8, addend: 0x0, symName: '__ZN5alloc3str83_$LT$impl$u20$core..borrow..Borrow$LT$str$GT$$u20$for$u20$alloc..string..String$GT$6borrow17h4a7e7bd9388aa231E', symObjAddr: 0x30DC, symBinAddr: 0x1103C, symSize: 0x20 }
  - { offset: 0x5827D, size: 0x8, addend: 0x0, symName: __ZN5alloc3fmt6format17h577cce5ac1bf8f10E, symObjAddr: 0x2FD4, symBinAddr: 0x10F34, symSize: 0xD8 }
  - { offset: 0x58341, size: 0x8, addend: 0x0, symName: '__ZN5alloc3fmt6format28_$u7b$$u7b$closure$u7d$$u7d$17hd6132c5fc2a68ebbE', symObjAddr: 0x30AC, symBinAddr: 0x1100C, symSize: 0x30 }
  - { offset: 0x58495, size: 0x8, addend: 0x0, symName: __ZN3std4sync4once4Once15call_once_force17h7a2a74a6903af083E, symObjAddr: 0x2F0, symBinAddr: 0x1072C, symSize: 0xD4 }
  - { offset: 0x5855A, size: 0x8, addend: 0x0, symName: __ZN3std4sync4once4Once15call_once_force17hf22e42dd58fa4cffE, symObjAddr: 0x3C4, symBinAddr: 0x10800, symSize: 0xD4 }
  - { offset: 0x5871E, size: 0x8, addend: 0x0, symName: __ZN3std4sync6poison4Flag4done17h8913603e67db262eE, symObjAddr: 0x62C, symBinAddr: 0x10A68, symSize: 0x8C }
  - { offset: 0x5880C, size: 0x8, addend: 0x0, symName: __ZN3std4sync6poison4Flag5guard17hdcaa21379c042cdaE, symObjAddr: 0x6B8, symBinAddr: 0x10AF4, symSize: 0xCC }
  - { offset: 0x58C85, size: 0x8, addend: 0x0, symName: __ZN5alloc5alloc6Global18alloc_impl_runtime17heecfc7982f198770E, symObjAddr: 0x31AC, symBinAddr: 0x1110C, symSize: 0x194 }
  - { offset: 0x59A78, size: 0x8, addend: 0x0, symName: '__ZN4core3cmp5impls54_$LT$impl$u20$core..cmp..PartialEq$u20$for$u20$i32$GT$2ne17h7ed75f7f624833f5E', symObjAddr: 0x1534, symBinAddr: 0x114BC, symSize: 0x2C }
  - { offset: 0x59ABB, size: 0x8, addend: 0x0, symName: '__ZN4core3cmp5impls54_$LT$impl$u20$core..cmp..PartialEq$u20$for$u20$i64$GT$2ne17h032cdc167aab25f1E', symObjAddr: 0x158C, symBinAddr: 0x114E8, symSize: 0x2C }
  - { offset: 0x5A042, size: 0x8, addend: 0x0, symName: '__ZN100_$LT$core..array..iter..iter_inner..PolymorphicIter$LT$DATA$GT$$u20$as$u20$core..ops..drop..Drop$GT$4drop17h6e1e5c7744c35363E', symObjAddr: 0x30, symBinAddr: 0x1142C, symSize: 0x30 }
  - { offset: 0x5A17C, size: 0x8, addend: 0x0, symName: '__ZN104_$LT$core..ops..index_range..IndexRange$u20$as$u20$core..slice..index..SliceIndex$LT$$u5b$T$u5d$$GT$$GT$17get_unchecked_mut18precondition_check17h0054b572378fd07eE', symObjAddr: 0x60, symBinAddr: 0x1145C, symSize: 0x60 }
  - { offset: 0x5A20B, size: 0x8, addend: 0x0, symName: '__ZN75_$LT$usize$u20$as$u20$core..slice..index..SliceIndex$LT$$u5b$T$u5d$$GT$$GT$13get_unchecked18precondition_check17hf04ba1acc9e028a4E', symObjAddr: 0x3FA0, symBinAddr: 0x11924, symSize: 0x60 }
  - { offset: 0x5B3BE, size: 0x8, addend: 0x0, symName: '__ZN4core3fmt3num52_$LT$impl$u20$core..fmt..Debug$u20$for$u20$usize$GT$3fmt17h9b3371df4e8cf12dE', symObjAddr: 0x18BC, symBinAddr: 0x11514, symSize: 0x90 }
  - { offset: 0x5B4C0, size: 0x8, addend: 0x0, symName: __ZN4core5alloc6layout6Layout25from_size_align_unchecked18precondition_check17hd3b15d446f38dec9E, symObjAddr: 0x194C, symBinAddr: 0x115A4, symSize: 0xBC }
  - { offset: 0x5B9E1, size: 0x8, addend: 0x0, symName: __ZN4pyo315internal_tricks12ptr_from_ref17h06c6498ad5638f52E, symObjAddr: 0x1E9C, symBinAddr: 0x117D0, symSize: 0x14 }
  - { offset: 0x5BA16, size: 0x8, addend: 0x0, symName: __ZN4pyo315internal_tricks12ptr_from_ref17h23acd3e98698f205E, symObjAddr: 0x1EC4, symBinAddr: 0x117E4, symSize: 0x14 }
  - { offset: 0x5BA4B, size: 0x8, addend: 0x0, symName: __ZN4pyo315internal_tricks12ptr_from_ref17h2dfbea8629407370E, symObjAddr: 0x1ED8, symBinAddr: 0x117F8, symSize: 0x14 }
  - { offset: 0x5BA80, size: 0x8, addend: 0x0, symName: __ZN4pyo315internal_tricks12ptr_from_ref17h36e7125b841d0a65E, symObjAddr: 0x1F14, symBinAddr: 0x1180C, symSize: 0x14 }
  - { offset: 0x5BAB5, size: 0x8, addend: 0x0, symName: __ZN4pyo315internal_tricks12ptr_from_ref17h4290645badd8d06dE, symObjAddr: 0x1F28, symBinAddr: 0x11820, symSize: 0x14 }
  - { offset: 0x5BAEA, size: 0x8, addend: 0x0, symName: __ZN4pyo315internal_tricks12ptr_from_ref17h53f5b3d4e816e865E, symObjAddr: 0x1F64, symBinAddr: 0x11834, symSize: 0x14 }
  - { offset: 0x5BB1F, size: 0x8, addend: 0x0, symName: __ZN4pyo315internal_tricks12ptr_from_ref17h80469e415aeb6e27E, symObjAddr: 0x1F78, symBinAddr: 0x11848, symSize: 0x14 }
  - { offset: 0x5BB54, size: 0x8, addend: 0x0, symName: __ZN4pyo315internal_tricks12ptr_from_ref17h8bb02293cab69fbaE, symObjAddr: 0x1FA0, symBinAddr: 0x1185C, symSize: 0x14 }
  - { offset: 0x5BB89, size: 0x8, addend: 0x0, symName: __ZN4pyo315internal_tricks12ptr_from_ref17h9bed1dd855a38f0fE, symObjAddr: 0x1FC8, symBinAddr: 0x11870, symSize: 0x14 }
  - { offset: 0x5BBBE, size: 0x8, addend: 0x0, symName: __ZN4pyo315internal_tricks12ptr_from_ref17hb1cd5ba39449ab33E, symObjAddr: 0x1FF0, symBinAddr: 0x11884, symSize: 0x14 }
  - { offset: 0x5BBF3, size: 0x8, addend: 0x0, symName: __ZN4pyo315internal_tricks12ptr_from_ref17hb2695b4f16001dacE, symObjAddr: 0x2004, symBinAddr: 0x11898, symSize: 0x14 }
  - { offset: 0x5BC28, size: 0x8, addend: 0x0, symName: __ZN4pyo315internal_tricks12ptr_from_ref17hc7ba8c8e6bc46e9cE, symObjAddr: 0x2018, symBinAddr: 0x118AC, symSize: 0x14 }
  - { offset: 0x5BC5D, size: 0x8, addend: 0x0, symName: __ZN4pyo315internal_tricks12ptr_from_ref17hd9d85826504f685bE, symObjAddr: 0x202C, symBinAddr: 0x118C0, symSize: 0x14 }
  - { offset: 0x5C3BD, size: 0x8, addend: 0x0, symName: '__ZN4core5array4iter10iter_inner78PolymorphicIter$LT$$u5b$core..mem..maybe_uninit..MaybeUninit$LT$T$GT$$u5d$$GT$4next17h5934c9b77c3c83adE', symObjAddr: 0x1B04, symBinAddr: 0x11660, symSize: 0x170 }
  - { offset: 0x5C967, size: 0x8, addend: 0x0, symName: '__ZN5alloc3str56_$LT$impl$u20$alloc..borrow..ToOwned$u20$for$u20$str$GT$8to_owned17hab7f33d95107f33bE', symObjAddr: 0x3AB4, symBinAddr: 0x118D4, symSize: 0x50 }
  - { offset: 0x5CFA9, size: 0x8, addend: 0x0, symName: '__ZN4pyo311conversions3std6string119_$LT$impl$u20$pyo3..conversion..IntoPy$LT$pyo3..instance..Py$LT$pyo3..types..any..PyAny$GT$$GT$$u20$for$u20$$RF$str$GT$7into_py17h1e5e80eab75825a0E', symObjAddr: 0xEBC, symBinAddr: 0x11A44, symSize: 0x34 }
  - { offset: 0x5F724, size: 0x8, addend: 0x0, symName: '__ZN3std4sync6poison5mutex19MutexGuard$LT$T$GT$3new28_$u7b$$u7b$closure$u7d$$u7d$17h02321195d6626b59E', symObjAddr: 0x96C, symBinAddr: 0x11A2C, symSize: 0x18 }
  - { offset: 0x5F773, size: 0x8, addend: 0x0, symName: '__ZN87_$LT$std..sync..poison..mutex..MutexGuard$LT$T$GT$$u20$as$u20$core..ops..drop..Drop$GT$4drop17h1d5361c2e761e065E', symObjAddr: 0x315C, symBinAddr: 0x11C40, symSize: 0x58 }
  - { offset: 0x5F7F7, size: 0x8, addend: 0x0, symName: '__ZN89_$LT$std..sync..poison..mutex..MutexGuard$LT$T$GT$$u20$as$u20$core..ops..deref..Deref$GT$5deref17h8d7c7f5d7b0af54fE', symObjAddr: 0x31B4, symBinAddr: 0x11C98, symSize: 0x1C }
  - { offset: 0x5F849, size: 0x8, addend: 0x0, symName: '__ZN92_$LT$std..sync..poison..mutex..MutexGuard$LT$T$GT$$u20$as$u20$core..ops..deref..DerefMut$GT$9deref_mut17h518287a95950c886E', symObjAddr: 0x3434, symBinAddr: 0x11D5C, symSize: 0x1C }
  - { offset: 0x5FDE7, size: 0x8, addend: 0x0, symName: '__ZN5alloc3vec16Vec$LT$T$C$A$GT$7set_len18precondition_check17h1de0dc6972731072E', symObjAddr: 0x2660, symBinAddr: 0x11AB8, symSize: 0x60 }
  - { offset: 0x5FF5C, size: 0x8, addend: 0x0, symName: '__ZN67_$LT$alloc..vec..Vec$LT$T$GT$$u20$as$u20$core..default..Default$GT$7default17h70f4fc1e1e0a93a6E', symObjAddr: 0x2EE4, symBinAddr: 0x11C08, symSize: 0x14 }
  - { offset: 0x5FF7E, size: 0x8, addend: 0x0, symName: '__ZN67_$LT$alloc..vec..Vec$LT$T$GT$$u20$as$u20$core..default..Default$GT$7default17h70f4fc1e1e0a93a6E', symObjAddr: 0x2EE4, symBinAddr: 0x11C08, symSize: 0x14 }
  - { offset: 0x5FF9F, size: 0x8, addend: 0x0, symName: '__ZN70_$LT$alloc..vec..Vec$LT$T$C$A$GT$$u20$as$u20$core..ops..drop..Drop$GT$4drop17h594bad00efbb55f3E', symObjAddr: 0x2FD8, symBinAddr: 0x11C1C, symSize: 0x24 }
  - { offset: 0x60055, size: 0x8, addend: 0x0, symName: '__ZN90_$LT$alloc..vec..Vec$LT$T$C$A$GT$$u20$as$u20$core..iter..traits..collect..IntoIterator$GT$9into_iter17h00523e173b93836cE', symObjAddr: 0x3234, symBinAddr: 0x11CB4, symSize: 0xA8 }
  - { offset: 0x603E2, size: 0x8, addend: 0x0, symName: '__ZN3std4sync6poison5mutex14Mutex$LT$T$GT$3new17h885e8ac5169fe5d2E', symObjAddr: 0x8C4, symBinAddr: 0x11984, symSize: 0x60 }
  - { offset: 0x604F3, size: 0x8, addend: 0x0, symName: '__ZN3std4sync6poison5mutex14Mutex$LT$T$GT$4lock17h13658a22e9860708E', symObjAddr: 0x924, symBinAddr: 0x119E4, symSize: 0x48 }
  - { offset: 0x605FC, size: 0x8, addend: 0x0, symName: '__ZN5alloc3vec12Vec$LT$T$GT$3new17h74495184d36f334aE', symObjAddr: 0x1444, symBinAddr: 0x11A78, symSize: 0x14 }
  - { offset: 0x606DA, size: 0x8, addend: 0x0, symName: '__ZN5alloc3vec16Vec$LT$T$C$A$GT$4push17he102d68ab7bf9d1fE', symObjAddr: 0x2414, symBinAddr: 0x11A8C, symSize: 0x2C }
  - { offset: 0x6075D, size: 0x8, addend: 0x0, symName: '__ZN5alloc3vec16Vec$LT$T$C$A$GT$8is_empty17h440e5cc42b8ceaa4E', symObjAddr: 0x2700, symBinAddr: 0x11B18, symSize: 0x20 }
  - { offset: 0x608DE, size: 0x8, addend: 0x0, symName: '__ZN5alloc3vec16Vec$LT$T$C$A$GT$8push_mut17h2f30e562d5f11953E', symObjAddr: 0x2920, symBinAddr: 0x11B38, symSize: 0xD0 }
  - { offset: 0x60D56, size: 0x8, addend: 0x0, symName: __ZN3std6thread6thread6Thread6unpark17hdd210ee94208c532E, symObjAddr: 0x0, symBinAddr: 0x11D78, symSize: 0x38 }
  - { offset: 0x60E66, size: 0x8, addend: 0x0, symName: __ZN4core4sync6atomic11atomic_load17he940b52164e37bceE, symObjAddr: 0x324, symBinAddr: 0x11FF8, symSize: 0xF8 }
  - { offset: 0x60EAC, size: 0x8, addend: 0x0, symName: __ZN4core4sync6atomic11atomic_load17hf8b23cf0d853d294E, symObjAddr: 0x41C, symBinAddr: 0x120F0, symSize: 0xF8 }
  - { offset: 0x60EF2, size: 0x8, addend: 0x0, symName: __ZN4core4sync6atomic12atomic_store17h167dc957784d598bE, symObjAddr: 0x514, symBinAddr: 0x121E8, symSize: 0xFC }
  - { offset: 0x61020, size: 0x8, addend: 0x0, symName: __ZN4core4sync6atomic23atomic_compare_exchange17h43a9a3d31e456b23E, symObjAddr: 0x744, symBinAddr: 0x12418, symSize: 0x4B4 }
  - { offset: 0x610BB, size: 0x8, addend: 0x0, symName: __ZN4core4sync6atomic5fence17h1f11f335dbe34c60E, symObjAddr: 0xBF8, symBinAddr: 0x128CC, symSize: 0xB0 }
  - { offset: 0x611BB, size: 0x8, addend: 0x0, symName: '__ZN4core3ptr100drop_in_place$LT$core..cell..Cell$LT$core..option..Option$LT$std..thread..thread..Thread$GT$$GT$$GT$17h904a9663a15c4eaaE', symObjAddr: 0xF8, symBinAddr: 0x11DE4, symSize: 0x24 }
  - { offset: 0x611EA, size: 0x8, addend: 0x0, symName: '__ZN4core3ptr106drop_in_place$LT$core..cell..UnsafeCell$LT$core..option..Option$LT$std..thread..thread..Thread$GT$$GT$$GT$17h1e3cc8516d083b81E', symObjAddr: 0x11C, symBinAddr: 0x11E08, symSize: 0x24 }
  - { offset: 0x61219, size: 0x8, addend: 0x0, symName: '__ZN4core3ptr114drop_in_place$LT$core..pin..Pin$LT$alloc..sync..Arc$LT$std..thread..thread..Inner$C$std..alloc..System$GT$$GT$$GT$17heef4fca71aae6c5cE', symObjAddr: 0x140, symBinAddr: 0x11E2C, symSize: 0x24 }
  - { offset: 0x61248, size: 0x8, addend: 0x0, symName: '__ZN4core3ptr42drop_in_place$LT$once_cell..imp..Guard$GT$17h4cf26df1dafe8a7dE', symObjAddr: 0x164, symBinAddr: 0x11E50, symSize: 0x24 }
  - { offset: 0x61277, size: 0x8, addend: 0x0, symName: '__ZN4core3ptr43drop_in_place$LT$once_cell..imp..Waiter$GT$17hb17d5a1749b3456dE', symObjAddr: 0x188, symBinAddr: 0x11E74, symSize: 0x24 }
  - { offset: 0x612A6, size: 0x8, addend: 0x0, symName: '__ZN4core3ptr48drop_in_place$LT$std..thread..thread..Thread$GT$17h164bb85b9757758eE', symObjAddr: 0x1AC, symBinAddr: 0x11E98, symSize: 0x24 }
  - { offset: 0x612D5, size: 0x8, addend: 0x0, symName: '__ZN4core3ptr76drop_in_place$LT$core..option..Option$LT$std..thread..thread..Thread$GT$$GT$17h33667aec771e130aE', symObjAddr: 0x1D0, symBinAddr: 0x11EBC, symSize: 0x44 }
  - { offset: 0x6134B, size: 0x8, addend: 0x0, symName: '__ZN4core3ptr7mut_ptr31_$LT$impl$u20$$BP$mut$u20$T$GT$7is_null17h657ba11c180c14c3E', symObjAddr: 0x214, symBinAddr: 0x11F00, symSize: 0x18 }
  - { offset: 0x613DF, size: 0x8, addend: 0x0, symName: '__ZN4core3ptr92drop_in_place$LT$alloc..sync..Arc$LT$std..thread..thread..Inner$C$std..alloc..System$GT$$GT$17h94e9b7c62e45e915E', symObjAddr: 0x22C, symBinAddr: 0x11F18, symSize: 0x24 }
  - { offset: 0x614FF, size: 0x8, addend: 0x0, symName: '__ZN72_$LT$core..option..Option$LT$T$GT$$u20$as$u20$core..default..Default$GT$7default17h7e4c5f0a569a4777E', symObjAddr: 0xF88, symBinAddr: 0x12C5C, symSize: 0x8 }
  - { offset: 0x61891, size: 0x8, addend: 0x0, symName: '__ZN4core3ops8function5impls79_$LT$impl$u20$core..ops..function..FnMut$LT$A$GT$$u20$for$u20$$RF$mut$u20$F$GT$8call_mut17h3a5722c23fbdd625E', symObjAddr: 0xC4, symBinAddr: 0x11DB0, symSize: 0x34 }
  - { offset: 0x61A75, size: 0x8, addend: 0x0, symName: '__ZN71_$LT$alloc..sync..Arc$LT$T$C$A$GT$$u20$as$u20$core..ops..drop..Drop$GT$4drop17h59f3e5d7ab00c538E', symObjAddr: 0xF0C, symBinAddr: 0x12BE0, symSize: 0x7C }
  - { offset: 0x61DC3, size: 0x8, addend: 0x0, symName: __ZN3std6thread6thread6Thread6unpark17hdd210ee94208c532E, symObjAddr: 0x0, symBinAddr: 0x11D78, symSize: 0x38 }
  - { offset: 0x61F2A, size: 0x8, addend: 0x0, symName: '__ZN63_$LT$once_cell..imp..Guard$u20$as$u20$core..ops..drop..Drop$GT$4drop17h501225f4b3e004b5E', symObjAddr: 0xCA8, symBinAddr: 0x1297C, symSize: 0x250 }
  - { offset: 0x6202A, size: 0x8, addend: 0x0, symName: '__ZN63_$LT$once_cell..imp..Guard$u20$as$u20$core..ops..drop..Drop$GT$4drop28_$u7b$$u7b$closure$u7d$$u7d$17h424464a58ee2db9fE', symObjAddr: 0xEF8, symBinAddr: 0x12BCC, symSize: 0x14 }
  - { offset: 0x62069, size: 0x8, addend: 0x0, symName: __ZN9once_cell3imp18initialize_or_wait17h7765c4d5afa2937bE, symObjAddr: 0xF90, symBinAddr: 0x12C64, symSize: 0x18C }
  - { offset: 0x6212B, size: 0x8, addend: 0x0, symName: '__ZN9once_cell3imp18initialize_or_wait28_$u7b$$u7b$closure$u7d$$u7d$17hef4b343a05164588E', symObjAddr: 0x111C, symBinAddr: 0x12DF0, symSize: 0x18 }
  - { offset: 0x62169, size: 0x8, addend: 0x0, symName: __ZN9once_cell3imp4wait17hb3910db349d7d20aE, symObjAddr: 0x1134, symBinAddr: 0x12E08, symSize: 0x1EC }
  - { offset: 0x62210, size: 0x8, addend: 0x0, symName: '__ZN9once_cell3imp4wait28_$u7b$$u7b$closure$u7d$$u7d$17hccf5f4ae19d2f02fE', symObjAddr: 0x1320, symBinAddr: 0x12FF4, symSize: 0x14 }
  - { offset: 0x62246, size: 0x8, addend: 0x0, symName: '__ZN9once_cell3imp4wait28_$u7b$$u7b$closure$u7d$$u7d$17hf7271dce85d0c569E', symObjAddr: 0x1334, symBinAddr: 0x13008, symSize: 0x20 }
  - { offset: 0x622A2, size: 0x8, addend: 0x0, symName: __ZN9once_cell3imp6strict4addr17hebb17f31963aee0cE, symObjAddr: 0x1354, symBinAddr: 0x13028, symSize: 0x10 }
  - { offset: 0x622D7, size: 0x8, addend: 0x0, symName: __ZN9once_cell3imp6strict8map_addr17h42b0aaee85103427E, symObjAddr: 0x1364, symBinAddr: 0x13038, symSize: 0x88 }
  - { offset: 0x62326, size: 0x8, addend: 0x0, symName: __ZN9once_cell3imp6strict8map_addr17h913d0335a8c55c42E, symObjAddr: 0x13EC, symBinAddr: 0x130C0, symSize: 0x88 }
  - { offset: 0x62375, size: 0x8, addend: 0x0, symName: __ZN9once_cell3imp6strict8map_addr17hf72645a03787e255E, symObjAddr: 0x1474, symBinAddr: 0x13148, symSize: 0x88 }
  - { offset: 0x623C4, size: 0x8, addend: 0x0, symName: __ZN9once_cell3imp6strict8map_addr17hfa6f727b896754d6E, symObjAddr: 0x14FC, symBinAddr: 0x131D0, symSize: 0x94 }
  - { offset: 0x62413, size: 0x8, addend: 0x0, symName: __ZN9once_cell3imp6strict9with_addr17h4f8add7c9c00465fE, symObjAddr: 0x1590, symBinAddr: 0x13264, symSize: 0x64 }
  - { offset: 0x62530, size: 0x8, addend: 0x0, symName: '__ZN4core4cell13Cell$LT$T$GT$3new17h99256892db480a46E', symObjAddr: 0x268, symBinAddr: 0x11F3C, symSize: 0x14 }
  - { offset: 0x62591, size: 0x8, addend: 0x0, symName: '__ZN4core4cell13Cell$LT$T$GT$4take17h55dbcf8defc02ef3E', symObjAddr: 0x27C, symBinAddr: 0x11F50, symSize: 0x3C }
  - { offset: 0x625F8, size: 0x8, addend: 0x0, symName: __ZN4core4sync6atomic10AtomicBool3new17h6b13f76fe5019a35E, symObjAddr: 0x2B8, symBinAddr: 0x11F8C, symSize: 0x18 }
  - { offset: 0x62628, size: 0x8, addend: 0x0, symName: __ZN4core4sync6atomic10AtomicBool4load17h32d3f1aaa79a5099E, symObjAddr: 0x2D0, symBinAddr: 0x11FA4, symSize: 0x2C }
  - { offset: 0x6265A, size: 0x8, addend: 0x0, symName: __ZN4core4sync6atomic10AtomicBool5store17hef615f9b55b2199eE, symObjAddr: 0x2FC, symBinAddr: 0x11FD0, symSize: 0x28 }
  - { offset: 0x626A8, size: 0x8, addend: 0x0, symName: '__ZN4core4sync6atomic18AtomicPtr$LT$T$GT$16compare_exchange17h5734bc87f6cd7b2bE', symObjAddr: 0x610, symBinAddr: 0x122E4, symSize: 0x38 }
  - { offset: 0x62710, size: 0x8, addend: 0x0, symName: '__ZN4core4sync6atomic18AtomicPtr$LT$T$GT$4load17h13e88ac88f58a913E', symObjAddr: 0x648, symBinAddr: 0x1231C, symSize: 0x24 }
  - { offset: 0x62781, size: 0x8, addend: 0x0, symName: '__ZN4core4sync6atomic18AtomicPtr$LT$T$GT$4swap17ha1e683c85252a176E', symObjAddr: 0x66C, symBinAddr: 0x12340, symSize: 0xD8 }
  - { offset: 0x62A19, size: 0x8, addend: 0x0, symName: '__ZN42_$LT$$RF$T$u20$as$u20$core..fmt..Debug$GT$3fmt17ha8561939dab82e17E', symObjAddr: 0x0, symBinAddr: 0x132C8, symSize: 0x30 }
  - { offset: 0x62AD6, size: 0x8, addend: 0x0, symName: '__ZN68_$LT$alloc..ffi..c_str..CString$u20$as$u20$core..ops..drop..Drop$GT$4drop17hd06beba1b024c2aeE', symObjAddr: 0xB5C, symBinAddr: 0x136E8, symSize: 0x70 }
  - { offset: 0x62C02, size: 0x8, addend: 0x0, symName: '__ZN65_$LT$alloc..vec..Vec$LT$T$C$A$GT$$u20$as$u20$core..fmt..Debug$GT$3fmt17hd188691282c35b17E', symObjAddr: 0xB20, symBinAddr: 0x136AC, symSize: 0x3C }
  - { offset: 0x62D56, size: 0x8, addend: 0x0, symName: '__ZN63_$LT$alloc..alloc..Global$u20$as$u20$core..alloc..Allocator$GT$10deallocate17h17534c467590a349E', symObjAddr: 0xA6C, symBinAddr: 0x13654, symSize: 0x58 }
  - { offset: 0x62F17, size: 0x8, addend: 0x0, symName: '__ZN72_$LT$alloc..boxed..Box$LT$T$C$A$GT$$u20$as$u20$core..ops..drop..Drop$GT$4drop17h2dc7261f898d3435E', symObjAddr: 0xBEC, symBinAddr: 0x13758, symSize: 0xBC }
  - { offset: 0x63468, size: 0x8, addend: 0x0, symName: __ZN4core3ptr9alignment9Alignment13new_unchecked18precondition_check17h600085ef4b83c8d2E, symObjAddr: 0x73C, symBinAddr: 0x1345C, symSize: 0x70 }
  - { offset: 0x6352F, size: 0x8, addend: 0x0, symName: '__ZN4core3ptr46drop_in_place$LT$alloc..vec..Vec$LT$u8$GT$$GT$17ha2d0e08ed7725495E', symObjAddr: 0x5F8, symBinAddr: 0x13330, symSize: 0x5C }
  - { offset: 0x6355E, size: 0x8, addend: 0x0, symName: '__ZN4core3ptr47drop_in_place$LT$alloc..ffi..c_str..CString$GT$17hb92907a3c45331dfE', symObjAddr: 0x654, symBinAddr: 0x1338C, symSize: 0x5C }
  - { offset: 0x6358D, size: 0x8, addend: 0x0, symName: '__ZN4core3ptr48drop_in_place$LT$alloc..ffi..c_str..NulError$GT$17h5a4e41761669ca67E', symObjAddr: 0x6B0, symBinAddr: 0x133E8, symSize: 0x24 }
  - { offset: 0x635BC, size: 0x8, addend: 0x0, symName: '__ZN4core3ptr53drop_in_place$LT$alloc..raw_vec..RawVec$LT$u8$GT$$GT$17hb892a5e1644e220bE', symObjAddr: 0x6D4, symBinAddr: 0x1340C, symSize: 0x24 }
  - { offset: 0x635EB, size: 0x8, addend: 0x0, symName: '__ZN4core3ptr58drop_in_place$LT$alloc..boxed..Box$LT$$u5b$u8$u5d$$GT$$GT$17h8af5b2eebd5c6f04E', symObjAddr: 0x6F8, symBinAddr: 0x13430, symSize: 0x2C }
  - { offset: 0x63624, size: 0x8, addend: 0x0, symName: '__ZN4core3ptr9const_ptr33_$LT$impl$u20$$BP$const$u20$T$GT$13is_aligned_to17hc0ee0a4b48c6195cE', symObjAddr: 0x7AC, symBinAddr: 0x134CC, symSize: 0x88 }
  - { offset: 0x638A2, size: 0x8, addend: 0x0, symName: '__ZN42_$LT$$RF$T$u20$as$u20$core..fmt..Debug$GT$3fmt17ha8561939dab82e17E', symObjAddr: 0x0, symBinAddr: 0x132C8, symSize: 0x30 }
  - { offset: 0x63D24, size: 0x8, addend: 0x0, symName: __ZN4core5alloc6layout6Layout25from_size_align_unchecked18precondition_check17he963475725a499a5E, symObjAddr: 0x834, symBinAddr: 0x13554, symSize: 0xBC }
  - { offset: 0x63E83, size: 0x8, addend: 0x0, symName: '__ZN4core5slice29_$LT$impl$u20$$u5b$T$u5d$$GT$8is_empty17h350d06c85d84d21eE', symObjAddr: 0x8F0, symBinAddr: 0x13610, symSize: 0x1C }
  - { offset: 0x63F39, size: 0x8, addend: 0x0, symName: '__ZN75_$LT$usize$u20$as$u20$core..slice..index..SliceIndex$LT$$u5b$T$u5d$$GT$$GT$17get_unchecked_mut18precondition_check17he5b5026d0e3330abE', symObjAddr: 0xDCC, symBinAddr: 0x13814, symSize: 0x60 }
  - { offset: 0x64004, size: 0x8, addend: 0x0, symName: __ZN8pyo3_ffi32_cstr_from_utf8_with_nul_checked17hb4af15102bd100aaE, symObjAddr: 0xF68, symBinAddr: 0x13874, symSize: 0x1B8 }
  - { offset: 0x6410A, size: 0x8, addend: 0x0, symName: __ZN4core3ffi5c_str4CStr29from_bytes_with_nul_unchecked17h71f92f44f233e053E, symObjAddr: 0x7C, symBinAddr: 0x132F8, symSize: 0x18 }
  - { offset: 0x6422D, size: 0x8, addend: 0x0, symName: __ZN4core3fmt9Arguments8from_str17h4bcc69f798453f06E, symObjAddr: 0x53C, symBinAddr: 0x13310, symSize: 0x20 }
  - { offset: 0x642FB, size: 0x8, addend: 0x0, symName: __ZN5alloc3ffi5c_str7CString3new17h089c9bb5dbefab4bE, symObjAddr: 0xA44, symBinAddr: 0x1362C, symSize: 0x28 }
  - { offset: 0x64B6D, size: 0x8, addend: 0x0, symName: __ZN4core4hint16assert_unchecked18precondition_check17hd0eaab551b60e51aE, symObjAddr: 0xC70, symBinAddr: 0x13A2C, symSize: 0x58 }
  - { offset: 0x64D03, size: 0x8, addend: 0x0, symName: '__ZN5alloc7raw_vec20RawVecInner$LT$A$GT$16with_capacity_in17hf6e02196da5ced4cE', symObjAddr: 0x1B84, symBinAddr: 0x13A84, symSize: 0xF0 }
  - { offset: 0x64E77, size: 0x8, addend: 0x0, symName: __RNvCs5QKde7ScR4H_7___rustc10rust_panic, symObjAddr: 0x0, symBinAddr: 0x42298, symSize: 0x48 }
  - { offset: 0x64E8E, size: 0x8, addend: 0x0, symName: __RNvCs5QKde7ScR4H_7___rustc10rust_panic, symObjAddr: 0x0, symBinAddr: 0x42298, symSize: 0x48 }
  - { offset: 0x64EA8, size: 0x8, addend: 0x0, symName: __RNvCs5QKde7ScR4H_7___rustc17___rust_drop_panic, symObjAddr: 0x174, symBinAddr: 0x13C94, symSize: 0x118 }
  - { offset: 0x65221, size: 0x8, addend: 0x0, symName: __RNvCs5QKde7ScR4H_7___rustc17rust_begin_unwind, symObjAddr: 0x28C, symBinAddr: 0x13DAC, symSize: 0x20 }
  - { offset: 0x65251, size: 0x8, addend: 0x0, symName: __RNvCs5QKde7ScR4H_7___rustc24___rust_foreign_exception, symObjAddr: 0x33C, symBinAddr: 0x13E5C, symSize: 0x118 }
  - { offset: 0x65634, size: 0x8, addend: 0x0, symName: __ZN3std9panicking11panic_count17is_zero_slow_path17hc53babc33550cbb1E, symObjAddr: 0x223C8, symBinAddr: 0x42B30, symSize: 0x2C }
  - { offset: 0x656E0, size: 0x8, addend: 0x0, symName: __ZN3std9panicking11panic_count8increase17hd191ffbd1b06e653E, symObjAddr: 0x22458, symBinAddr: 0x1D9D4, symSize: 0x64 }
  - { offset: 0x656F7, size: 0x8, addend: 0x0, symName: __ZN3std9panicking11panic_count8increase17hd191ffbd1b06e653E, symObjAddr: 0x22458, symBinAddr: 0x1D9D4, symSize: 0x64 }
  - { offset: 0x6570C, size: 0x8, addend: 0x0, symName: __ZN3std9panicking11panic_count8increase17hd191ffbd1b06e653E, symObjAddr: 0x22458, symBinAddr: 0x1D9D4, symSize: 0x64 }
  - { offset: 0x65822, size: 0x8, addend: 0x0, symName: __ZN3std9panicking12catch_unwind7cleanup17h752c0163e5ec05a0E, symObjAddr: 0x224E0, symBinAddr: 0x42B5C, symSize: 0x40 }
  - { offset: 0x65948, size: 0x8, addend: 0x0, symName: '__ZN3std9panicking12default_hook28_$u7b$$u7b$closure$u7d$$u7d$17h1af7615be47c43abE', symObjAddr: 0x2265C, symBinAddr: 0x1DB74, symSize: 0x134 }
  - { offset: 0x65A77, size: 0x8, addend: 0x0, symName: __ZN3std9panicking12default_hook17hdcc779fdbf67ae29E, symObjAddr: 0x22520, symBinAddr: 0x1DA38, symSize: 0x13C }
  - { offset: 0x65BFF, size: 0x8, addend: 0x0, symName: '__ZN3std9panicking13panic_handler28_$u7b$$u7b$closure$u7d$$u7d$17h2068a0d88ec25e56E', symObjAddr: 0x22790, symBinAddr: 0x1DCA8, symSize: 0x9C }
  - { offset: 0x65D76, size: 0x8, addend: 0x0, symName: '__ZN86_$LT$std..panicking..panic_handler..StaticStrPayload$u20$as$u20$core..fmt..Display$GT$3fmt17h29168cb33d563a1aE', symObjAddr: 0x4ABFC, symBinAddr: 0x3111C, symSize: 0x10 }
  - { offset: 0x65D97, size: 0x8, addend: 0x0, symName: '__ZN89_$LT$std..panicking..panic_handler..FormatStringPayload$u20$as$u20$core..fmt..Display$GT$3fmt17h77f7538bf2d17d35E', symObjAddr: 0x4AF98, symBinAddr: 0x31154, symSize: 0x34 }
  - { offset: 0x65E92, size: 0x8, addend: 0x0, symName: '__ZN93_$LT$std..panicking..panic_handler..StaticStrPayload$u20$as$u20$core..panic..PanicPayload$GT$3get17h568ef765b4ec1226E', symObjAddr: 0x4B5B4, symBinAddr: 0x311F0, symSize: 0xC }
  - { offset: 0x65EAD, size: 0x8, addend: 0x0, symName: '__ZN93_$LT$std..panicking..panic_handler..StaticStrPayload$u20$as$u20$core..panic..PanicPayload$GT$6as_str17hf5728612964ce613E', symObjAddr: 0x4B5C0, symBinAddr: 0x311FC, symSize: 0xC }
  - { offset: 0x65EC7, size: 0x8, addend: 0x0, symName: '__ZN93_$LT$std..panicking..panic_handler..StaticStrPayload$u20$as$u20$core..panic..PanicPayload$GT$8take_box17hbd5a9e5a88e9c9c2E', symObjAddr: 0x4B5CC, symBinAddr: 0x31208, symSize: 0x48 }
  - { offset: 0x65F86, size: 0x8, addend: 0x0, symName: '__ZN96_$LT$std..panicking..panic_handler..FormatStringPayload$u20$as$u20$core..panic..PanicPayload$GT$3get17h8800fd25a29ed037E', symObjAddr: 0x4BD08, symBinAddr: 0x3166C, symSize: 0xA0 }
  - { offset: 0x660E1, size: 0x8, addend: 0x0, symName: '__ZN96_$LT$std..panicking..panic_handler..FormatStringPayload$u20$as$u20$core..panic..PanicPayload$GT$8take_box17h8acddd4651f80559E', symObjAddr: 0x4BDA8, symBinAddr: 0x3170C, symSize: 0x108 }
  - { offset: 0x663C9, size: 0x8, addend: 0x0, symName: __ZN3std9panicking13resume_unwind17he56a77b38696f38cE, symObjAddr: 0x2282C, symBinAddr: 0x42B9C, symSize: 0xB8 }
  - { offset: 0x66637, size: 0x8, addend: 0x0, symName: __ZN3std9panicking14payload_as_str17hb5a4fbc1324916adE, symObjAddr: 0x228E4, symBinAddr: 0x1DD44, symSize: 0xC8 }
  - { offset: 0x6677B, size: 0x8, addend: 0x0, symName: __ZN3std9panicking15panic_with_hook17h455d3ea9bab4bcbdE, symObjAddr: 0x229AC, symBinAddr: 0x1DE0C, symSize: 0x388 }
  - { offset: 0x66EB6, size: 0x8, addend: 0x0, symName: '__ZN79_$LT$std..panicking..resume_unwind..RewrapBox$u20$as$u20$core..fmt..Display$GT$3fmt17hfba99a384db1ee07E', symObjAddr: 0x49440, symBinAddr: 0x308B0, symSize: 0x14 }
  - { offset: 0x66ED7, size: 0x8, addend: 0x0, symName: '__ZN86_$LT$std..panicking..resume_unwind..RewrapBox$u20$as$u20$core..panic..PanicPayload$GT$3get17h57f3cb7a44c6d899E', symObjAddr: 0x4AC0C, symBinAddr: 0x3112C, symSize: 0xC }
  - { offset: 0x66EF2, size: 0x8, addend: 0x0, symName: '__ZN86_$LT$std..panicking..resume_unwind..RewrapBox$u20$as$u20$core..panic..PanicPayload$GT$8take_box17h532bd54a1518e236E', symObjAddr: 0x4AC18, symBinAddr: 0x31138, symSize: 0x1C }
  - { offset: 0x66F10, size: 0x8, addend: 0x0, symName: '__ZN86_$LT$std..panicking..resume_unwind..RewrapBox$u20$as$u20$core..panic..PanicPayload$GT$8take_box17h532bd54a1518e236E', symObjAddr: 0x4AC18, symBinAddr: 0x31138, symSize: 0x1C }
  - { offset: 0x66FDE, size: 0x8, addend: 0x0, symName: __ZN3std3sys2io5error4unix17decode_error_kind17h1242adb8c229e6d2E, symObjAddr: 0x13FC0, symBinAddr: 0x1BB6C, symSize: 0x150 }
  - { offset: 0x6708D, size: 0x8, addend: 0x0, symName: __ZN3std3sys3pal4unix4sync5mutex5Mutex4init17h6076660a84b149e1E, symObjAddr: 0x16C88, symBinAddr: 0x1C01C, symSize: 0x168 }
  - { offset: 0x67122, size: 0x8, addend: 0x0, symName: __ZN3std3sys3pal4unix4sync5mutex5Mutex4lock17hf11d9bf9473ab519E, symObjAddr: 0x16DF0, symBinAddr: 0x1C184, symSize: 0x1C }
  - { offset: 0x67136, size: 0x8, addend: 0x0, symName: __ZN3std3sys3pal4unix4sync5mutex5Mutex6unlock17h687ac4a6e6394e2dE, symObjAddr: 0x16EE0, symBinAddr: 0x1C1A0, symSize: 0x4 }
  - { offset: 0x67181, size: 0x8, addend: 0x0, symName: __ZN3std3sys3pal4unix4sync5mutex5Mutex4lock4fail17h8e77330dbd0cf067E, symObjAddr: 0x16E0C, symBinAddr: 0x42304, symSize: 0xD4 }
  - { offset: 0x67472, size: 0x8, addend: 0x0, symName: '__ZN81_$LT$std..sys..pal..unix..sync..mutex..Mutex$u20$as$u20$core..ops..drop..Drop$GT$4drop17h0d408a522165698cE', symObjAddr: 0x4A0EC, symBinAddr: 0x30E68, symSize: 0x4 }
  - { offset: 0x674A7, size: 0x8, addend: 0x0, symName: __ZN3std3sys3pal4unix14abort_internal17h7e526aa44f596455E, symObjAddr: 0x155F0, symBinAddr: 0x422F8, symSize: 0xC }
  - { offset: 0x67525, size: 0x8, addend: 0x0, symName: '__ZN64_$LT$std..sys..stdio..unix..Stderr$u20$as$u20$std..io..Write$GT$14write_vectored17heb48fdb29153c9f0E', symObjAddr: 0x450B4, symBinAddr: 0x2FF1C, symSize: 0x54 }
  - { offset: 0x675F9, size: 0x8, addend: 0x0, symName: '__ZN64_$LT$std..sys..stdio..unix..Stderr$u20$as$u20$std..io..Write$GT$17is_write_vectored17ha30bdc86dcf4c460E', symObjAddr: 0x45108, symBinAddr: 0x2FF70, symSize: 0x8 }
  - { offset: 0x67613, size: 0x8, addend: 0x0, symName: '__ZN64_$LT$std..sys..stdio..unix..Stderr$u20$as$u20$std..io..Write$GT$5flush17hfa5e76720ade45a1E', symObjAddr: 0x45110, symBinAddr: 0x2FF78, symSize: 0x8 }
  - { offset: 0x6762C, size: 0x8, addend: 0x0, symName: '__ZN64_$LT$std..sys..stdio..unix..Stderr$u20$as$u20$std..io..Write$GT$5write17h6ebf1446bf9e1975E', symObjAddr: 0x45118, symBinAddr: 0x2FF80, symSize: 0x54 }
  - { offset: 0x67742, size: 0x8, addend: 0x0, symName: __ZN3std3sys12thread_local6native5eager7destroy17h36c3752fe1f4e0b6E, symObjAddr: 0xF50C, symBinAddr: 0x1B818, symSize: 0x2C }
  - { offset: 0x678DE, size: 0x8, addend: 0x0, symName: __ZN3std3sys12thread_local5guard5apple6enable9run_dtors17haca72ead1c130e17E, symObjAddr: 0xF41C, symBinAddr: 0x1B728, symSize: 0xF0 }
  - { offset: 0x67D6F, size: 0x8, addend: 0x0, symName: __ZN3std3sys12thread_local11destructors4list8register17hfa31c57150524692E, symObjAddr: 0xF320, symBinAddr: 0x1B62C, symSize: 0xFC }
  - { offset: 0x6806E, size: 0x8, addend: 0x0, symName: __ZN3std3sys3env4unix13env_read_lock17hd4ae47032b5c30f8E, symObjAddr: 0x14110, symBinAddr: 0x1BCBC, symSize: 0x230 }
  - { offset: 0x68738, size: 0x8, addend: 0x0, symName: '__ZN3std3sys3env4unix6getenv28_$u7b$$u7b$closure$u7d$$u7d$17hf1079b0eaf7c71beE', symObjAddr: 0x14340, symBinAddr: 0x1BEEC, symSize: 0x130 }
  - { offset: 0x68980, size: 0x8, addend: 0x0, symName: __ZN3std3sys2fs4unix4File6open_c17h75f37d49044d3016E, symObjAddr: 0x12834, symBinAddr: 0x1B850, symSize: 0x1A0 }
  - { offset: 0x68A6D, size: 0x8, addend: 0x0, symName: '__ZN3std3sys2fs4unix4File4open28_$u7b$$u7b$closure$u7d$$u7d$17hdcff4e2a34019a05E', symObjAddr: 0x127D4, symBinAddr: 0x1B844, symSize: 0xC }
  - { offset: 0x68B07, size: 0x8, addend: 0x0, symName: '__ZN71_$LT$std..sys..fs..unix..DirStream$u20$as$u20$core..ops..drop..Drop$GT$4drop17h6a875ba702f2c730E', symObjAddr: 0x466F8, symBinAddr: 0x3056C, symSize: 0xB4 }
  - { offset: 0x68BCE, size: 0x8, addend: 0x0, symName: __ZN3std3sys2fs8read_dir17h43e51a1609ca9236E, symObjAddr: 0x13864, symBinAddr: 0x1B9F0, symSize: 0x17C }
  - { offset: 0x68EFA, size: 0x8, addend: 0x0, symName: __ZN3std3sys7helpers14small_c_string24run_with_cstr_allocating17h509c48cf23c25261E, symObjAddr: 0x18B54, symBinAddr: 0x4273C, symSize: 0xD0 }
  - { offset: 0x69119, size: 0x8, addend: 0x0, symName: __ZN3std3sys7helpers14small_c_string24run_with_cstr_allocating17h8945d17fc8f7c02fE, symObjAddr: 0x18CE0, symBinAddr: 0x4280C, symSize: 0xB4 }
  - { offset: 0x69338, size: 0x8, addend: 0x0, symName: __ZN3std3sys7helpers14small_c_string24run_with_cstr_allocating17hac5bd5af9d4402a9E, symObjAddr: 0x18F0C, symBinAddr: 0x428C0, symSize: 0xA4 }
  - { offset: 0x695B5, size: 0x8, addend: 0x0, symName: '__ZN3std3sys4sync8once_box16OnceBox$LT$T$GT$10initialize17h9f3ca06c0415f9ffE', symObjAddr: 0x18194, symBinAddr: 0x42658, symSize: 0xE4 }
  - { offset: 0x69864, size: 0x8, addend: 0x0, symName: '__ZN79_$LT$std..sys..sync..mutex..pthread..Mutex$u20$as$u20$core..ops..drop..Drop$GT$4drop17hb184857b72f27b3dE', symObjAddr: 0x494A8, symBinAddr: 0x308C4, symSize: 0x58 }
  - { offset: 0x699B3, size: 0x8, addend: 0x0, symName: __ZN3std3sys4sync4once5queue4Once4call17h90cdeb873fe878e4E, symObjAddr: 0x175A8, symBinAddr: 0x423D8, symSize: 0x200 }
  - { offset: 0x69C5D, size: 0x8, addend: 0x0, symName: '__ZN82_$LT$std..sys..sync..once..queue..WaiterQueue$u20$as$u20$core..ops..drop..Drop$GT$4drop17hdb6e532e07f86a70E', symObjAddr: 0x4A554, symBinAddr: 0x30E6C, symSize: 0xDC }
  - { offset: 0x69E4C, size: 0x8, addend: 0x0, symName: __ZN3std3sys4sync4once5queue4wait17h2d025cd11154a2e8E, symObjAddr: 0x17974, symBinAddr: 0x1C1C4, symSize: 0x184 }
  - { offset: 0x6A3BF, size: 0x8, addend: 0x0, symName: __ZN3std3sys4sync6rwlock5queue6RwLock12unlock_queue17hd1cbfe6db4460afaE, symObjAddr: 0x17B0C, symBinAddr: 0x1C348, symSize: 0x1BC }
  - { offset: 0x6AA1A, size: 0x8, addend: 0x0, symName: __ZN3std3sys4sync6rwlock5queue6RwLock16unlock_contended17h7d2c7f9cf3e62932E, symObjAddr: 0x17FC4, symBinAddr: 0x425D8, symSize: 0x40 }
  - { offset: 0x6AAE1, size: 0x8, addend: 0x0, symName: __ZN3std3sys4sync6rwlock5queue6RwLock21read_unlock_contended17h1131540f0bb5eecaE, symObjAddr: 0x18004, symBinAddr: 0x42618, symSize: 0x40 }
  - { offset: 0x6AAFF, size: 0x8, addend: 0x0, symName: __ZN3std3sys4sync6rwlock5queue6RwLock21read_unlock_contended17h1131540f0bb5eecaE, symObjAddr: 0x18004, symBinAddr: 0x42618, symSize: 0x40 }
  - { offset: 0x6AB14, size: 0x8, addend: 0x0, symName: __ZN3std3sys4sync6rwlock5queue6RwLock21read_unlock_contended17h1131540f0bb5eecaE, symObjAddr: 0x18004, symBinAddr: 0x42618, symSize: 0x40 }
  - { offset: 0x6AD2E, size: 0x8, addend: 0x0, symName: '__ZN83_$LT$std..sys..sync..rwlock..queue..PanicGuard$u20$as$u20$core..ops..drop..Drop$GT$4drop17h2509f8616019adb9E', symObjAddr: 0x4A7D0, symBinAddr: 0x45FC8, symSize: 0x30 }
  - { offset: 0x6AD67, size: 0x8, addend: 0x0, symName: __ZN3std3sys4sync14thread_parking6darwin6Parker6unpark17h07dd20202619ec82E, symObjAddr: 0x17588, symBinAddr: 0x1C1A4, symSize: 0x20 }
  - { offset: 0x6AD7E, size: 0x8, addend: 0x0, symName: __ZN3std3sys4sync14thread_parking6darwin6Parker6unpark17h07dd20202619ec82E, symObjAddr: 0x17588, symBinAddr: 0x1C1A4, symSize: 0x20 }
  - { offset: 0x6AD92, size: 0x8, addend: 0x0, symName: __ZN3std3sys4sync14thread_parking6darwin6Parker6unpark17h07dd20202619ec82E, symObjAddr: 0x17588, symBinAddr: 0x1C1A4, symSize: 0x20 }
  - { offset: 0x6AE13, size: 0x8, addend: 0x0, symName: '__ZN3std3sys11personality3gcc14find_eh_action28_$u7b$$u7b$closure$u7d$$u7d$17h26196c326510badeE', symObjAddr: 0xF1C0, symBinAddr: 0x1B4CC, symSize: 0xC }
  - { offset: 0x6AE27, size: 0x8, addend: 0x0, symName: '__ZN3std3sys11personality3gcc14find_eh_action28_$u7b$$u7b$closure$u7d$$u7d$17h3beb1e892a771049E', symObjAddr: 0xF1CC, symBinAddr: 0x1B4D8, symSize: 0xC }
  - { offset: 0x6AE6F, size: 0x8, addend: 0x0, symName: _rust_eh_personality, symObjAddr: 0x4EA84, symBinAddr: 0x34110, symSize: 0x378 }
  - { offset: 0x6B284, size: 0x8, addend: 0x0, symName: __ZN3std3sys11personality5dwarf2eh19read_encoded_offset17hb44de3678dfcb9deE, symObjAddr: 0xF1D8, symBinAddr: 0x1B4E4, symSize: 0x148 }
  - { offset: 0x6B482, size: 0x8, addend: 0x0, symName: '__ZN3std3sys9backtrace10_print_fmt28_$u7b$$u7b$closure$u7d$$u7d$17h1f0621b5a53d5f85E', symObjAddr: 0x1B9E8, symBinAddr: 0x1C504, symSize: 0x24 }
  - { offset: 0x6B4AB, size: 0x8, addend: 0x0, symName: '__ZN3std3sys9backtrace10_print_fmt28_$u7b$$u7b$closure$u7d$$u7d$17hc37f85308239e555E', symObjAddr: 0x1BA0C, symBinAddr: 0x1C528, symSize: 0x134 }
  - { offset: 0x6B596, size: 0x8, addend: 0x0, symName: '__ZN3std3sys9backtrace10_print_fmt28_$u7b$$u7b$closure$u7d$$u7d$28_$u7b$$u7b$closure$u7d$$u7d$17h67e6c19f21a372ceE', symObjAddr: 0x1BB40, symBinAddr: 0x1C65C, symSize: 0x244 }
  - { offset: 0x6B7BA, size: 0x8, addend: 0x0, symName: __ZN3std3sys9backtrace15output_filename17h89ac4fad3e23b255E, symObjAddr: 0x1BD84, symBinAddr: 0x1C8A0, symSize: 0xE0 }
  - { offset: 0x6B8FA, size: 0x8, addend: 0x0, symName: __ZN3std3sys9backtrace26__rust_end_short_backtrace17h7bea34f9056001eeE, symObjAddr: 0x1BE70, symBinAddr: 0x1C980, symSize: 0xC }
  - { offset: 0x6B914, size: 0x8, addend: 0x0, symName: __ZN3std3sys9backtrace26__rust_end_short_backtrace17h8a1ed24f129fbc3cE, symObjAddr: 0x1BE7C, symBinAddr: 0x42964, symSize: 0xC }
  - { offset: 0x6B92D, size: 0x8, addend: 0x0, symName: __ZN3std3sys9backtrace4lock17h03d74a540edc4f8fE, symObjAddr: 0x1BE88, symBinAddr: 0x1C98C, symSize: 0x70 }
  - { offset: 0x6BAA8, size: 0x8, addend: 0x0, symName: '__ZN98_$LT$std..sys..backtrace..BacktraceLock..print..DisplayBacktrace$u20$as$u20$core..fmt..Display$GT$3fmt17hcde33371d8bba08bE', symObjAddr: 0x4C07C, symBinAddr: 0x31814, symSize: 0x210 }
  - { offset: 0x6C09B, size: 0x8, addend: 0x0, symName: __RNvCs5QKde7ScR4H_7___rustc11___rdl_alloc, symObjAddr: 0x48, symBinAddr: 0x13B74, symSize: 0x6C }
  - { offset: 0x6C119, size: 0x8, addend: 0x0, symName: __RNvCs5QKde7ScR4H_7___rustc13___rdl_dealloc, symObjAddr: 0xC0, symBinAddr: 0x13BE0, symSize: 0x4 }
  - { offset: 0x6C137, size: 0x8, addend: 0x0, symName: __RNvCs5QKde7ScR4H_7___rustc13___rdl_dealloc, symObjAddr: 0xC0, symBinAddr: 0x13BE0, symSize: 0x4 }
  - { offset: 0x6C149, size: 0x8, addend: 0x0, symName: __RNvCs5QKde7ScR4H_7___rustc13___rdl_realloc, symObjAddr: 0xC4, symBinAddr: 0x13BE4, symSize: 0xB0 }
  - { offset: 0x6C21C, size: 0x8, addend: 0x0, symName: __RNvCs5QKde7ScR4H_7___rustc18___rdl_alloc_zeroed, symObjAddr: 0x2AC, symBinAddr: 0x13DCC, symSize: 0x90 }
  - { offset: 0x6C2C0, size: 0x8, addend: 0x0, symName: __RNvCs5QKde7ScR4H_7___rustc26___rust_alloc_error_handler, symObjAddr: 0x454, symBinAddr: 0x422E0, symSize: 0x18 }
  - { offset: 0x6C305, size: 0x8, addend: 0x0, symName: __ZN3std5alloc24default_alloc_error_hook17h9a182e317a6d74b3E, symObjAddr: 0x1FAAC, symBinAddr: 0x1D1AC, symSize: 0x108 }
  - { offset: 0x6C375, size: 0x8, addend: 0x0, symName: __ZN3std5alloc8rust_oom17h16d1fdb40ae7ee58E, symObjAddr: 0x1FBB4, symBinAddr: 0x42970, symSize: 0x18 }
  - { offset: 0x6C394, size: 0x8, addend: 0x0, symName: '__ZN3std5alloc8rust_oom28_$u7b$$u7b$closure$u7d$$u7d$17h417972e13eb2d7fdE', symObjAddr: 0x1FBCC, symBinAddr: 0x42988, symSize: 0x34 }
  - { offset: 0x6C454, size: 0x8, addend: 0x0, symName: __ZN3std2io5error5Error3new17h341eaf0fe1742dcbE, symObjAddr: 0x9AAC, symBinAddr: 0x1A594, symSize: 0x110 }
  - { offset: 0x6C8D2, size: 0x8, addend: 0x0, symName: '__ZN3std2io5error83_$LT$impl$u20$core..fmt..Debug$u20$for$u20$std..io..error..repr_bitpacked..Repr$GT$3fmt17h93747d36033c46a0E', symObjAddr: 0x9CB0, symBinAddr: 0x1A6A4, symSize: 0x280 }
  - { offset: 0x6CB6C, size: 0x8, addend: 0x0, symName: '__ZN58_$LT$std..io..error..Error$u20$as$u20$core..fmt..Debug$GT$3fmt17h5fb65499dcf44dccE', symObjAddr: 0x33F60, symBinAddr: 0x281C8, symSize: 0x4 }
  - { offset: 0x6CB85, size: 0x8, addend: 0x0, symName: '__ZN60_$LT$std..io..error..Error$u20$as$u20$core..fmt..Display$GT$3fmt17ha78d75a637bbf1cbE', symObjAddr: 0x411AC, symBinAddr: 0x2F898, symSize: 0x1A8 }
  - { offset: 0x6CDFC, size: 0x8, addend: 0x0, symName: '__ZN62_$LT$std..io..error..ErrorKind$u20$as$u20$core..fmt..Debug$GT$3fmt17h571dc9b8c1218ec7E', symObjAddr: 0x43C18, symBinAddr: 0x2FDFC, symSize: 0x28 }
  - { offset: 0x6CE36, size: 0x8, addend: 0x0, symName: __ZN3std2io5Write18write_all_vectored17h48a271e9304484ffE, symObjAddr: 0x94D4, symBinAddr: 0x1A01C, symSize: 0x184 }
  - { offset: 0x6D039, size: 0x8, addend: 0x0, symName: __ZN3std2io5Write9write_all17hda6aef687a819ad9E, symObjAddr: 0x9658, symBinAddr: 0x1A1A0, symSize: 0xAC }
  - { offset: 0x6D0FB, size: 0x8, addend: 0x0, symName: __ZN3std2io5Write9write_fmt17h2fd0abc6933d662dE, symObjAddr: 0x9704, symBinAddr: 0x1A24C, symSize: 0x118 }
  - { offset: 0x6D3D3, size: 0x8, addend: 0x0, symName: __ZN3std2io5Write9write_fmt17h6cb699b8eb2cfe97E, symObjAddr: 0x981C, symBinAddr: 0x1A364, symSize: 0x118 }
  - { offset: 0x6D6B2, size: 0x8, addend: 0x0, symName: __ZN3std2io5Write9write_fmt17hb9f59d39d99988fcE, symObjAddr: 0x9934, symBinAddr: 0x1A47C, symSize: 0x118 }
  - { offset: 0x6D9DC, size: 0x8, addend: 0x0, symName: __ZN3std2io5stdio22try_set_output_capture17h5c607be6387df45bE, symObjAddr: 0xA440, symBinAddr: 0x1AD30, symSize: 0xEC }
  - { offset: 0x6DC8D, size: 0x8, addend: 0x0, symName: __ZN3std2io5stdio31print_to_buffer_if_capture_used17h199ca6a30200a367E, symObjAddr: 0xA608, symBinAddr: 0x1AE1C, symSize: 0x214 }
  - { offset: 0x6E411, size: 0x8, addend: 0x0, symName: __ZN3std2io5stdio6Stderr4lock17h21051cfacb1429daE, symObjAddr: 0xAA80, symBinAddr: 0x1B030, symSize: 0xE4 }
  - { offset: 0x6E6B7, size: 0x8, addend: 0x0, symName: __ZN3std2io5stdio7_eprint17he932b65433564ac5E, symObjAddr: 0xAC74, symBinAddr: 0x1B114, symSize: 0xC0 }
  - { offset: 0x6E6FA, size: 0x8, addend: 0x0, symName: '__ZN61_$LT$$RF$std..io..stdio..Stderr$u20$as$u20$std..io..Write$GT$9write_fmt17h9e4c828e3b68f8a3E', symObjAddr: 0x42254, symBinAddr: 0x2FA40, symSize: 0x184 }
  - { offset: 0x6EB83, size: 0x8, addend: 0x0, symName: '__ZN61_$LT$std..io..stdio..StderrLock$u20$as$u20$std..io..Write$GT$9write_all17h4a680c83359cc4daE', symObjAddr: 0x42B68, symBinAddr: 0x2FBC4, symSize: 0x104 }
  - { offset: 0x6EE39, size: 0x8, addend: 0x0, symName: '__ZN3std2io5impls74_$LT$impl$u20$std..io..Write$u20$for$u20$alloc..vec..Vec$LT$u8$C$A$GT$$GT$14write_vectored17hcf8e9deba73a3a65E', symObjAddr: 0x9F30, symBinAddr: 0x1A924, symSize: 0x184 }
  - { offset: 0x6F087, size: 0x8, addend: 0x0, symName: '__ZN3std2io5impls74_$LT$impl$u20$std..io..Write$u20$for$u20$alloc..vec..Vec$LT$u8$C$A$GT$$GT$17is_write_vectored17hb3366cd68b776629E', symObjAddr: 0xA0B4, symBinAddr: 0x1AAA8, symSize: 0x8 }
  - { offset: 0x6F0AE, size: 0x8, addend: 0x0, symName: '__ZN3std2io5impls74_$LT$impl$u20$std..io..Write$u20$for$u20$alloc..vec..Vec$LT$u8$C$A$GT$$GT$18write_all_vectored17hab2a20d141de6caaE', symObjAddr: 0xA0BC, symBinAddr: 0x1AAB0, symSize: 0x174 }
  - { offset: 0x6F0CC, size: 0x8, addend: 0x0, symName: '__ZN3std2io5impls74_$LT$impl$u20$std..io..Write$u20$for$u20$alloc..vec..Vec$LT$u8$C$A$GT$$GT$18write_all_vectored17hab2a20d141de6caaE', symObjAddr: 0xA0BC, symBinAddr: 0x1AAB0, symSize: 0x174 }
  - { offset: 0x6F0E1, size: 0x8, addend: 0x0, symName: '__ZN3std2io5impls74_$LT$impl$u20$std..io..Write$u20$for$u20$alloc..vec..Vec$LT$u8$C$A$GT$$GT$18write_all_vectored17hab2a20d141de6caaE', symObjAddr: 0xA0BC, symBinAddr: 0x1AAB0, symSize: 0x174 }
  - { offset: 0x6F0F6, size: 0x8, addend: 0x0, symName: '__ZN3std2io5impls74_$LT$impl$u20$std..io..Write$u20$for$u20$alloc..vec..Vec$LT$u8$C$A$GT$$GT$18write_all_vectored17hab2a20d141de6caaE', symObjAddr: 0xA0BC, symBinAddr: 0x1AAB0, symSize: 0x174 }
  - { offset: 0x6F10B, size: 0x8, addend: 0x0, symName: '__ZN3std2io5impls74_$LT$impl$u20$std..io..Write$u20$for$u20$alloc..vec..Vec$LT$u8$C$A$GT$$GT$18write_all_vectored17hab2a20d141de6caaE', symObjAddr: 0xA0BC, symBinAddr: 0x1AAB0, symSize: 0x174 }
  - { offset: 0x6F11F, size: 0x8, addend: 0x0, symName: '__ZN3std2io5impls74_$LT$impl$u20$std..io..Write$u20$for$u20$alloc..vec..Vec$LT$u8$C$A$GT$$GT$18write_all_vectored17hab2a20d141de6caaE', symObjAddr: 0xA0BC, symBinAddr: 0x1AAB0, symSize: 0x174 }
  - { offset: 0x6F351, size: 0x8, addend: 0x0, symName: '__ZN3std2io5impls74_$LT$impl$u20$std..io..Write$u20$for$u20$alloc..vec..Vec$LT$u8$C$A$GT$$GT$5flush17h023578fd24d8e882E', symObjAddr: 0xA230, symBinAddr: 0x1AC24, symSize: 0x8 }
  - { offset: 0x6F36B, size: 0x8, addend: 0x0, symName: '__ZN3std2io5impls74_$LT$impl$u20$std..io..Write$u20$for$u20$alloc..vec..Vec$LT$u8$C$A$GT$$GT$5write17h4f2190924240fa52E', symObjAddr: 0xA238, symBinAddr: 0x1AC2C, symSize: 0x84 }
  - { offset: 0x6F4AF, size: 0x8, addend: 0x0, symName: '__ZN3std2io5impls74_$LT$impl$u20$std..io..Write$u20$for$u20$alloc..vec..Vec$LT$u8$C$A$GT$$GT$9write_all17h1873854fb2fc9c7cE', symObjAddr: 0xA2BC, symBinAddr: 0x1ACB0, symSize: 0x80 }
  - { offset: 0x6F70E, size: 0x8, addend: 0x0, symName: '__ZN81_$LT$std..io..default_write_fmt..Adapter$LT$T$GT$$u20$as$u20$core..fmt..Write$GT$9write_str17h3a963f31b03b2ffaE', symObjAddr: 0x49A6C, symBinAddr: 0x30C20, symSize: 0x80 }
  - { offset: 0x6F859, size: 0x8, addend: 0x0, symName: '__ZN81_$LT$std..io..default_write_fmt..Adapter$LT$T$GT$$u20$as$u20$core..fmt..Write$GT$9write_str17h49117fbce3cacf2cE', symObjAddr: 0x49AEC, symBinAddr: 0x30CA0, symSize: 0xD8 }
  - { offset: 0x6F93E, size: 0x8, addend: 0x0, symName: '__ZN81_$LT$std..io..default_write_fmt..Adapter$LT$T$GT$$u20$as$u20$core..fmt..Write$GT$9write_str17h6ca3bce49463d649E', symObjAddr: 0x49BC4, symBinAddr: 0x30D78, symSize: 0xA0 }
  - { offset: 0x6FA68, size: 0x8, addend: 0x0, symName: '__ZN81_$LT$std..io..default_write_fmt..Adapter$LT$T$GT$$u20$as$u20$core..fmt..Write$GT$9write_str17hd69001acd09b0077E', symObjAddr: 0x49D8C, symBinAddr: 0x30E18, symSize: 0x50 }
  - { offset: 0x6FACA, size: 0x8, addend: 0x0, symName: __ZN3std7process5abort17h356e677792aaa82eE, symObjAddr: 0x2161C, symBinAddr: 0x42B24, symSize: 0xC }
  - { offset: 0x6FB98, size: 0x8, addend: 0x0, symName: __ZN3std4path4Path13_strip_prefix17he6c0dac5845936beE, symObjAddr: 0x1CCF4, symBinAddr: 0x1CD94, symSize: 0x21C }
  - { offset: 0x6FCA6, size: 0x8, addend: 0x0, symName: __ZN3std4path4Path5_join17h44575178964eb91bE, symObjAddr: 0x1D5D4, symBinAddr: 0x1CFB0, symSize: 0x184 }
  - { offset: 0x70208, size: 0x8, addend: 0x0, symName: __ZN3std4path10Components25parse_next_component_back17h820dd9f8984cdd82E, symObjAddr: 0x1BEF8, symBinAddr: 0x1C9FC, symSize: 0x160 }
  - { offset: 0x7035D, size: 0x8, addend: 0x0, symName: __ZN3std4path10Components7as_path17he74005186aef2d8fE, symObjAddr: 0x1C058, symBinAddr: 0x1CB5C, symSize: 0x238 }
  - { offset: 0x70554, size: 0x8, addend: 0x0, symName: '__ZN61_$LT$std..path..Component$u20$as$u20$core..cmp..PartialEq$GT$2eq17hf43800806b87a6dcE', symObjAddr: 0x43448, symBinAddr: 0x2FCC8, symSize: 0x134 }
  - { offset: 0x706AA, size: 0x8, addend: 0x0, symName: '__ZN80_$LT$std..path..Components$u20$as$u20$core..iter..traits..iterator..Iterator$GT$4next17hbcfca30053db8263E', symObjAddr: 0x49500, symBinAddr: 0x3091C, symSize: 0x304 }
  - { offset: 0x707A9, size: 0x8, addend: 0x0, symName: '__ZN95_$LT$std..path..Components$u20$as$u20$core..iter..traits..double_ended..DoubleEndedIterator$GT$9next_back17h6c3cc2590cbbcd71E', symObjAddr: 0x4B8B0, symBinAddr: 0x31250, symSize: 0x41C }
  - { offset: 0x70907, size: 0x8, addend: 0x0, symName: '__ZN126_$LT$std..thread..thread..thread_name_string..ThreadNameString$u20$as$u20$core..convert..From$LT$alloc..string..String$GT$$GT$4from17h5e636d9fac3a2e7cE', symObjAddr: 0xB28, symBinAddr: 0x13F74, symSize: 0x128 }
  - { offset: 0x70B72, size: 0x8, addend: 0x0, symName: __ZN3std6thread6thread6Thread3new17hcd84da917c050e20E, symObjAddr: 0x1FEE8, symBinAddr: 0x1D3D0, symSize: 0x18C }
  - { offset: 0x70FA3, size: 0x8, addend: 0x0, symName: __ZN3std6thread9functions4park17h10b0d1a105a89f2dE, symObjAddr: 0x209B0, symBinAddr: 0x1D90C, symSize: 0xC8 }
  - { offset: 0x711D7, size: 0x8, addend: 0x0, symName: '__ZN76_$LT$std..thread..functions..PanicGuard$u20$as$u20$core..ops..drop..Drop$GT$4drop17h5861351d3795efc5E', symObjAddr: 0x47ED0, symBinAddr: 0x45F98, symSize: 0x30 }
  - { offset: 0x712D1, size: 0x8, addend: 0x0, symName: '__ZN3std6thread7current17with_current_name28_$u7b$$u7b$closure$u7d$$u7d$17h62776a1255d052e2E', symObjAddr: 0x202C4, symBinAddr: 0x1D55C, symSize: 0x368 }
  - { offset: 0x71AF8, size: 0x8, addend: 0x0, symName: __ZN3std6thread7current12init_current17ha92fdd47b5360b8bE, symObjAddr: 0x20188, symBinAddr: 0x429E8, symSize: 0x13C }
  - { offset: 0x71DC9, size: 0x8, addend: 0x0, symName: __ZN3std6thread7current7current17hdf38cc5826cd64c8E, symObjAddr: 0x206E8, symBinAddr: 0x1D8C4, symSize: 0x48 }
  - { offset: 0x71EFB, size: 0x8, addend: 0x0, symName: __ZN3std6thread2id8ThreadId3new9exhausted17h5bd4e83d32c0c452E, symObjAddr: 0x1FD7C, symBinAddr: 0x429C8, symSize: 0x20 }
  - { offset: 0x71F53, size: 0x8, addend: 0x0, symName: __ZN3std12backtrace_rs5print17BacktraceFrameFmt21print_raw_with_column17hbdaeb8e58ae70d92E, symObjAddr: 0xCD0, symBinAddr: 0x140D8, symSize: 0x378 }
  - { offset: 0x72221, size: 0x8, addend: 0x0, symName: __ZN3std12backtrace_rs9backtrace9libunwind5trace8trace_fn17hd3b93af9109e0040E, symObjAddr: 0x1048, symBinAddr: 0x14450, symSize: 0x48 }
  - { offset: 0x722D7, size: 0x8, addend: 0x0, symName: __ZN3std12backtrace_rs9symbolize5gimli4mmap17h94ef6f388d4f1a02E, symObjAddr: 0x1090, symBinAddr: 0x14498, symSize: 0x1FC }
  - { offset: 0x7288C, size: 0x8, addend: 0x0, symName: __ZN3std12backtrace_rs9symbolize5gimli5macho11find_header17h10129ed1adcf63dbE, symObjAddr: 0x128C, symBinAddr: 0x14694, symSize: 0x1E4 }
  - { offset: 0x728A9, size: 0x8, addend: 0x0, symName: __ZN3std12backtrace_rs9symbolize5gimli5macho11find_header17h10129ed1adcf63dbE, symObjAddr: 0x128C, symBinAddr: 0x14694, symSize: 0x1E4 }
  - { offset: 0x728BD, size: 0x8, addend: 0x0, symName: __ZN3std12backtrace_rs9symbolize5gimli5macho11find_header17h10129ed1adcf63dbE, symObjAddr: 0x128C, symBinAddr: 0x14694, symSize: 0x1E4 }
  - { offset: 0x728D1, size: 0x8, addend: 0x0, symName: __ZN3std12backtrace_rs9symbolize5gimli5macho11find_header17h10129ed1adcf63dbE, symObjAddr: 0x128C, symBinAddr: 0x14694, symSize: 0x1E4 }
  - { offset: 0x728E5, size: 0x8, addend: 0x0, symName: __ZN3std12backtrace_rs9symbolize5gimli5macho11find_header17h10129ed1adcf63dbE, symObjAddr: 0x128C, symBinAddr: 0x14694, symSize: 0x1E4 }
  - { offset: 0x728FA, size: 0x8, addend: 0x0, symName: __ZN3std12backtrace_rs9symbolize5gimli5macho11find_header17h10129ed1adcf63dbE, symObjAddr: 0x128C, symBinAddr: 0x14694, symSize: 0x1E4 }
  - { offset: 0x7290F, size: 0x8, addend: 0x0, symName: __ZN3std12backtrace_rs9symbolize5gimli5macho11find_header17h10129ed1adcf63dbE, symObjAddr: 0x128C, symBinAddr: 0x14694, symSize: 0x1E4 }
  - { offset: 0x7300C, size: 0x8, addend: 0x0, symName: __ZN3std12backtrace_rs9symbolize5gimli5macho6Object5parse17he3bcf04599ad628dE, symObjAddr: 0x1470, symBinAddr: 0x14878, symSize: 0xC9C }
  - { offset: 0x74F1F, size: 0x8, addend: 0x0, symName: __ZN3std12backtrace_rs9symbolize5gimli5macho6Object7section17hf33b0ac23b7158f7E, symObjAddr: 0x210C, symBinAddr: 0x15514, symSize: 0x154 }
  - { offset: 0x75301, size: 0x8, addend: 0x0, symName: __ZN3std12backtrace_rs9symbolize5gimli7Context11find_frames17h771c3d5892c8a8edE, symObjAddr: 0x2260, symBinAddr: 0x15668, symSize: 0x398 }
  - { offset: 0x75732, size: 0x8, addend: 0x0, symName: __ZN3std12backtrace_rs9symbolize5gimli7Context3new17h622bc4cbf1e80765E, symObjAddr: 0x25F8, symBinAddr: 0x15A00, symSize: 0x1EDC }
  - { offset: 0x79BF1, size: 0x8, addend: 0x0, symName: __ZN3std12backtrace_rs9symbolize5gimli7resolve17h7bad3477dbd5ab0eE, symObjAddr: 0x44D4, symBinAddr: 0x178DC, symSize: 0x266C }
  - { offset: 0x7FA4F, size: 0x8, addend: 0x0, symName: __ZN3std12backtrace_rs9symbolize6Symbol4name17heb933bb5f95f7f9eE, symObjAddr: 0x6B78, symBinAddr: 0x19F48, symSize: 0xD4 }
  - { offset: 0x7FBB7, size: 0x8, addend: 0x0, symName: '__ZN79_$LT$std..backtrace_rs..symbolize..SymbolName$u20$as$u20$core..fmt..Display$GT$3fmt17ha1cfd259ccd5081fE', symObjAddr: 0x48CF8, symBinAddr: 0x307AC, symSize: 0x104 }
  - { offset: 0x7FCF6, size: 0x8, addend: 0x0, symName: '__ZN75_$LT$std..fs..ReadDir$u20$as$u20$core..iter..traits..iterator..Iterator$GT$4next17hc076ff689a5d953dE', symObjAddr: 0x476E4, symBinAddr: 0x30620, symSize: 0x18C }
  - { offset: 0x800EF, size: 0x8, addend: 0x0, symName: '__ZN64_$LT$std..ffi..os_str..Display$u20$as$u20$core..fmt..Display$GT$3fmt17h51d66dc022a65b98E', symObjAddr: 0x44D9C, symBinAddr: 0x2FE70, symSize: 0xAC }
  - { offset: 0x80171, size: 0x8, addend: 0x0, symName: '__ZN3std4sync6poison5mutex14Mutex$LT$T$GT$4lock17h95b64927eb0c74cfE', symObjAddr: 0x1F060, symBinAddr: 0x1D134, symSize: 0x78 }
  - { offset: 0x80453, size: 0x8, addend: 0x0, symName: __ZN3std5panic13resume_unwind17h1dc586ddfdb3e7f7E, symObjAddr: 0x1FC00, symBinAddr: 0x429BC, symSize: 0xC }
  - { offset: 0x80480, size: 0x8, addend: 0x0, symName: __ZN3std5panic19get_backtrace_style17h62b53c396a4f30bdE, symObjAddr: 0x1FC0C, symBinAddr: 0x1D2B4, symSize: 0x11C }
  - { offset: 0x8049E, size: 0x8, addend: 0x0, symName: __ZN3std5panic19get_backtrace_style17h62b53c396a4f30bdE, symObjAddr: 0x1FC0C, symBinAddr: 0x1D2B4, symSize: 0x11C }
  - { offset: 0x804B3, size: 0x8, addend: 0x0, symName: __ZN3std5panic19get_backtrace_style17h62b53c396a4f30bdE, symObjAddr: 0x1FC0C, symBinAddr: 0x1D2B4, symSize: 0x11C }
  - { offset: 0x809F4, size: 0x8, addend: 0x0, symName: __ZN3std3env11current_dir17ha7be4ecd1271f71fE, symObjAddr: 0xCA7C, symBinAddr: 0x1B1D4, symSize: 0x18C }
  - { offset: 0x80E66, size: 0x8, addend: 0x0, symName: __ZN3std3env7_var_os17hb51c74bab3da1b8fE, symObjAddr: 0xCD74, symBinAddr: 0x1B360, symSize: 0x16C }
  - { offset: 0x82C38, size: 0x8, addend: 0x0, symName: '__ZN4core3ptr107drop_in_place$LT$core..pin..Pin$LT$alloc..boxed..Box$LT$std..sys..pal..unix..sync..mutex..Mutex$GT$$GT$$GT$17h2df49b87d3e08e82E', symObjAddr: 0x24C8C, symBinAddr: 0x1E8F4, symSize: 0x2C }
  - { offset: 0x82CFA, size: 0x8, addend: 0x0, symName: '__ZN4core3ptr109drop_in_place$LT$alloc..sync..Arc$LT$std..sync..poison..mutex..Mutex$LT$alloc..vec..Vec$LT$u8$GT$$GT$$GT$$GT$17h1a27d77d497c2e4cE', symObjAddr: 0x24CB8, symBinAddr: 0x1E920, symSize: 0x20 }
  - { offset: 0x82D11, size: 0x8, addend: 0x0, symName: '__ZN4core3ptr109drop_in_place$LT$alloc..sync..Arc$LT$std..sync..poison..mutex..Mutex$LT$alloc..vec..Vec$LT$u8$GT$$GT$$GT$$GT$17h1a27d77d497c2e4cE', symObjAddr: 0x24CB8, symBinAddr: 0x1E920, symSize: 0x20 }
  - { offset: 0x82D26, size: 0x8, addend: 0x0, symName: '__ZN4core3ptr109drop_in_place$LT$alloc..sync..Arc$LT$std..sync..poison..mutex..Mutex$LT$alloc..vec..Vec$LT$u8$GT$$GT$$GT$$GT$17h1a27d77d497c2e4cE', symObjAddr: 0x24CB8, symBinAddr: 0x1E920, symSize: 0x20 }
  - { offset: 0x82D3B, size: 0x8, addend: 0x0, symName: '__ZN4core3ptr109drop_in_place$LT$alloc..sync..Arc$LT$std..sync..poison..mutex..Mutex$LT$alloc..vec..Vec$LT$u8$GT$$GT$$GT$$GT$17h1a27d77d497c2e4cE', symObjAddr: 0x24CB8, symBinAddr: 0x1E920, symSize: 0x20 }
  - { offset: 0x82D8F, size: 0x8, addend: 0x0, symName: '__ZN4core3ptr119drop_in_place$LT$std..io..default_write_fmt..Adapter$LT$std..io..cursor..Cursor$LT$$RF$mut$u20$$u5b$u8$u5d$$GT$$GT$$GT$17h5d84935f2dab4fa4E', symObjAddr: 0x24D54, symBinAddr: 0x1E940, symSize: 0x10 }
  - { offset: 0x82DA6, size: 0x8, addend: 0x0, symName: '__ZN4core3ptr119drop_in_place$LT$std..io..default_write_fmt..Adapter$LT$std..io..cursor..Cursor$LT$$RF$mut$u20$$u5b$u8$u5d$$GT$$GT$$GT$17h5d84935f2dab4fa4E', symObjAddr: 0x24D54, symBinAddr: 0x1E940, symSize: 0x10 }
  - { offset: 0x82DB8, size: 0x8, addend: 0x0, symName: '__ZN4core3ptr123drop_in_place$LT$addr2line..Context$LT$gimli..read..endian_slice..EndianSlice$LT$gimli..endianity..LittleEndian$GT$$GT$$GT$17hf39a22d4deac0acfE', symObjAddr: 0x24D64, symBinAddr: 0x1E950, symSize: 0x70 }
  - { offset: 0x82EBD, size: 0x8, addend: 0x0, symName: '__ZN4core3ptr129drop_in_place$LT$addr2line..unit..ResUnit$LT$gimli..read..endian_slice..EndianSlice$LT$gimli..endianity..LittleEndian$GT$$GT$$GT$17h8f5e828f1982fd36E', symObjAddr: 0x24F1C, symBinAddr: 0x1E9C0, symSize: 0xE4 }
  - { offset: 0x830DA, size: 0x8, addend: 0x0, symName: '__ZN4core3ptr129drop_in_place$LT$addr2line..unit..SupUnit$LT$gimli..read..endian_slice..EndianSlice$LT$gimli..endianity..LittleEndian$GT$$GT$$GT$17h500d1bfb3690b988E', symObjAddr: 0x25000, symBinAddr: 0x1EAA4, symSize: 0x54 }
  - { offset: 0x83197, size: 0x8, addend: 0x0, symName: '__ZN4core3ptr130drop_in_place$LT$addr2line..unit..ResUnits$LT$gimli..read..endian_slice..EndianSlice$LT$gimli..endianity..LittleEndian$GT$$GT$$GT$17h8a1c47b37cff57e6E', symObjAddr: 0x25054, symBinAddr: 0x1EAF8, symSize: 0xD0 }
  - { offset: 0x833BC, size: 0x8, addend: 0x0, symName: '__ZN4core3ptr130drop_in_place$LT$addr2line..unit..SupUnits$LT$gimli..read..endian_slice..EndianSlice$LT$gimli..endianity..LittleEndian$GT$$GT$$GT$17hfeb69d9bfa4a9266E', symObjAddr: 0x25124, symBinAddr: 0x1EBC8, symSize: 0xE4 }
  - { offset: 0x835C1, size: 0x8, addend: 0x0, symName: '__ZN4core3ptr130drop_in_place$LT$gimli..read..dwarf..Dwarf$LT$gimli..read..endian_slice..EndianSlice$LT$gimli..endianity..LittleEndian$GT$$GT$$GT$17h7c37341b5293d04eE', symObjAddr: 0x25208, symBinAddr: 0x1ECAC, symSize: 0x58 }
  - { offset: 0x83656, size: 0x8, addend: 0x0, symName: '__ZN4core3ptr131drop_in_place$LT$$u5b$core..option..Option$LT$core..option..Option$LT$std..backtrace_rs..symbolize..gimli..Mapping$GT$$GT$$u5d$$GT$17hd87b4441aab0cc00E', symObjAddr: 0x25260, symBinAddr: 0x1ED04, symSize: 0xCC }
  - { offset: 0x836FF, size: 0x8, addend: 0x0, symName: '__ZN4core3ptr137drop_in_place$LT$gimli..read..dwarf..Unit$LT$gimli..read..endian_slice..EndianSlice$LT$gimli..endianity..LittleEndian$GT$$C$usize$GT$$GT$17hf44d2a6966a873f6E', symObjAddr: 0x2532C, symBinAddr: 0x1EDD0, symSize: 0x54 }
  - { offset: 0x837F4, size: 0x8, addend: 0x0, symName: '__ZN4core3ptr138drop_in_place$LT$addr2line..function..LazyFunction$LT$gimli..read..endian_slice..EndianSlice$LT$gimli..endianity..LittleEndian$GT$$GT$$GT$17ha4d59f5b4eba1420E', symObjAddr: 0x25380, symBinAddr: 0x1EE24, symSize: 0x64 }
  - { offset: 0x8380B, size: 0x8, addend: 0x0, symName: '__ZN4core3ptr138drop_in_place$LT$addr2line..function..LazyFunction$LT$gimli..read..endian_slice..EndianSlice$LT$gimli..endianity..LittleEndian$GT$$GT$$GT$17ha4d59f5b4eba1420E', symObjAddr: 0x25380, symBinAddr: 0x1EE24, symSize: 0x64 }
  - { offset: 0x83820, size: 0x8, addend: 0x0, symName: '__ZN4core3ptr138drop_in_place$LT$addr2line..function..LazyFunction$LT$gimli..read..endian_slice..EndianSlice$LT$gimli..endianity..LittleEndian$GT$$GT$$GT$17ha4d59f5b4eba1420E', symObjAddr: 0x25380, symBinAddr: 0x1EE24, symSize: 0x64 }
  - { offset: 0x83835, size: 0x8, addend: 0x0, symName: '__ZN4core3ptr138drop_in_place$LT$addr2line..function..LazyFunction$LT$gimli..read..endian_slice..EndianSlice$LT$gimli..endianity..LittleEndian$GT$$GT$$GT$17ha4d59f5b4eba1420E', symObjAddr: 0x25380, symBinAddr: 0x1EE24, symSize: 0x64 }
  - { offset: 0x839BE, size: 0x8, addend: 0x0, symName: '__ZN4core3ptr144drop_in_place$LT$alloc..vec..Vec$LT$core..option..Option$LT$core..option..Option$LT$std..backtrace_rs..symbolize..gimli..Mapping$GT$$GT$$GT$$GT$17he4b9c6024a582bf2E', symObjAddr: 0x253E4, symBinAddr: 0x1EE88, symSize: 0x78 }
  - { offset: 0x83B6D, size: 0x8, addend: 0x0, symName: '__ZN4core3ptr152drop_in_place$LT$alloc..vec..Vec$LT$addr2line..unit..ResUnit$LT$gimli..read..endian_slice..EndianSlice$LT$gimli..endianity..LittleEndian$GT$$GT$$GT$$GT$17h18a8b266d2222173E', symObjAddr: 0x25518, symBinAddr: 0x1EF00, symSize: 0xC4 }
  - { offset: 0x83D2F, size: 0x8, addend: 0x0, symName: '__ZN4core3ptr152drop_in_place$LT$alloc..vec..Vec$LT$addr2line..unit..SupUnit$LT$gimli..read..endian_slice..EndianSlice$LT$gimli..endianity..LittleEndian$GT$$GT$$GT$$GT$17haa029dd48deb3ebaE', symObjAddr: 0x255DC, symBinAddr: 0x1EFC4, symSize: 0xF4 }
  - { offset: 0x83F9C, size: 0x8, addend: 0x0, symName: '__ZN4core3ptr152drop_in_place$LT$core..result..Result$LT$$RF$std..thread..thread..Thread$C$$LP$$RF$std..thread..thread..Thread$C$std..thread..thread..Thread$RP$$GT$$GT$17h18759a1374e55b00E', symObjAddr: 0x256D0, symBinAddr: 0x1F0B8, symSize: 0x28 }
  - { offset: 0x8408F, size: 0x8, addend: 0x0, symName: '__ZN4core3ptr154drop_in_place$LT$alloc..boxed..Box$LT$dyn$u20$core..ops..function..FnOnce$LT$$LP$$RP$$GT$$u2b$Output$u20$$u3d$$u20$$LP$$RP$$u2b$core..marker..Send$GT$$GT$17hdc8c3818156ac0e9E', symObjAddr: 0x256F8, symBinAddr: 0x1F0E0, symSize: 0x78 }
  - { offset: 0x841DC, size: 0x8, addend: 0x0, symName: '__ZN4core3ptr156drop_in_place$LT$alloc..boxed..Box$LT$$u5b$core..option..Option$LT$core..option..Option$LT$std..backtrace_rs..symbolize..gimli..Mapping$GT$$GT$$u5d$$GT$$GT$17hb6c3b22c784a7231E', symObjAddr: 0x25770, symBinAddr: 0x1F158, symSize: 0xF8 }
  - { offset: 0x84359, size: 0x8, addend: 0x0, symName: '__ZN4core3ptr159drop_in_place$LT$alloc..sync..ArcInner$LT$gimli..read..dwarf..Dwarf$LT$gimli..read..endian_slice..EndianSlice$LT$gimli..endianity..LittleEndian$GT$$GT$$GT$$GT$17hc766f40eab1f7b4fE', symObjAddr: 0x258E4, symBinAddr: 0x1F250, symSize: 0x5C }
  - { offset: 0x8441A, size: 0x8, addend: 0x0, symName: '__ZN4core3ptr161drop_in_place$LT$alloc..vec..Vec$LT$addr2line..function..LazyFunction$LT$gimli..read..endian_slice..EndianSlice$LT$gimli..endianity..LittleEndian$GT$$GT$$GT$$GT$17h505e9c807ceae37bE', symObjAddr: 0x25940, symBinAddr: 0x1F2AC, symSize: 0xAC }
  - { offset: 0x846D6, size: 0x8, addend: 0x0, symName: '__ZN4core3ptr173drop_in_place$LT$alloc..boxed..Box$LT$$u5b$addr2line..function..LazyFunction$LT$gimli..read..endian_slice..EndianSlice$LT$gimli..endianity..LittleEndian$GT$$GT$$u5d$$GT$$GT$17h29a7edcd8288108bE', symObjAddr: 0x25A98, symBinAddr: 0x1F358, symSize: 0x9C }
  - { offset: 0x846ED, size: 0x8, addend: 0x0, symName: '__ZN4core3ptr173drop_in_place$LT$alloc..boxed..Box$LT$$u5b$addr2line..function..LazyFunction$LT$gimli..read..endian_slice..EndianSlice$LT$gimli..endianity..LittleEndian$GT$$GT$$u5d$$GT$$GT$17h29a7edcd8288108bE', symObjAddr: 0x25A98, symBinAddr: 0x1F358, symSize: 0x9C }
  - { offset: 0x84942, size: 0x8, addend: 0x0, symName: '__ZN4core3ptr181drop_in_place$LT$core..option..Option$LT$gimli..read..line..IncompleteLineProgram$LT$gimli..read..endian_slice..EndianSlice$LT$gimli..endianity..LittleEndian$GT$$C$usize$GT$$GT$$GT$17h3df05a09ff9eb616E', symObjAddr: 0x25BA4, symBinAddr: 0x1F3F4, symSize: 0x98 }
  - { offset: 0x84C47, size: 0x8, addend: 0x0, symName: '__ZN4core3ptr181drop_in_place$LT$core..result..Result$LT$addr2line..frame..FrameIter$LT$gimli..read..endian_slice..EndianSlice$LT$gimli..endianity..LittleEndian$GT$$GT$$C$gimli..read..Error$GT$$GT$17h0baa502b63bc3f2fE', symObjAddr: 0x25C3C, symBinAddr: 0x1F48C, symSize: 0x34 }
  - { offset: 0x84DAC, size: 0x8, addend: 0x0, symName: '__ZN4core3ptr184drop_in_place$LT$core..result..Result$LT$addr2line..function..Functions$LT$gimli..read..endian_slice..EndianSlice$LT$gimli..endianity..LittleEndian$GT$$GT$$C$gimli..read..Error$GT$$GT$17h233998975e718504E', symObjAddr: 0x25C70, symBinAddr: 0x1F4C0, symSize: 0xD8 }
  - { offset: 0x8510E, size: 0x8, addend: 0x0, symName: '__ZN4core3ptr231drop_in_place$LT$core..result..Result$LT$core..option..Option$LT$alloc..boxed..Box$LT$addr2line..unit..DwoUnit$LT$gimli..read..endian_slice..EndianSlice$LT$gimli..endianity..LittleEndian$GT$$GT$$GT$$GT$$C$gimli..read..Error$GT$$GT$17h488d06a2dc977f62E', symObjAddr: 0x25E08, symBinAddr: 0x1F598, symSize: 0xD4 }
  - { offset: 0x8532E, size: 0x8, addend: 0x0, symName: '__ZN4core3ptr238drop_in_place$LT$alloc..boxed..convert..$LT$impl$u20$core..convert..From$LT$alloc..string..String$GT$$u20$for$u20$alloc..boxed..Box$LT$dyn$u20$core..error..Error$u2b$core..marker..Sync$u2b$core..marker..Send$GT$$GT$..from..StringError$GT$17hab70380e782b1eceE', symObjAddr: 0x25EDC, symBinAddr: 0x1F66C, symSize: 0x18 }
  - { offset: 0x85345, size: 0x8, addend: 0x0, symName: '__ZN4core3ptr238drop_in_place$LT$alloc..boxed..convert..$LT$impl$u20$core..convert..From$LT$alloc..string..String$GT$$u20$for$u20$alloc..boxed..Box$LT$dyn$u20$core..error..Error$u2b$core..marker..Sync$u2b$core..marker..Send$GT$$GT$..from..StringError$GT$17hab70380e782b1eceE', symObjAddr: 0x25EDC, symBinAddr: 0x1F66C, symSize: 0x18 }
  - { offset: 0x8535A, size: 0x8, addend: 0x0, symName: '__ZN4core3ptr238drop_in_place$LT$alloc..boxed..convert..$LT$impl$u20$core..convert..From$LT$alloc..string..String$GT$$u20$for$u20$alloc..boxed..Box$LT$dyn$u20$core..error..Error$u2b$core..marker..Sync$u2b$core..marker..Send$GT$$GT$..from..StringError$GT$17hab70380e782b1eceE', symObjAddr: 0x25EDC, symBinAddr: 0x1F66C, symSize: 0x18 }
  - { offset: 0x85403, size: 0x8, addend: 0x0, symName: '__ZN4core3ptr275drop_in_place$LT$gimli..read..line..LineRows$LT$gimli..read..endian_slice..EndianSlice$LT$gimli..endianity..LittleEndian$GT$$C$gimli..read..line..IncompleteLineProgram$LT$gimli..read..endian_slice..EndianSlice$LT$gimli..endianity..LittleEndian$GT$$C$usize$GT$$C$usize$GT$$GT$17h0131afaeb5f79ec2E', symObjAddr: 0x25F38, symBinAddr: 0x1F684, symSize: 0x8C }
  - { offset: 0x85721, size: 0x8, addend: 0x0, symName: '__ZN4core3ptr280drop_in_place$LT$$LT$alloc..collections..btree..map..IntoIter$LT$K$C$V$C$A$GT$$u20$as$u20$core..ops..drop..Drop$GT$..drop..DropGuard$LT$u64$C$core..result..Result$LT$alloc..sync..Arc$LT$gimli..read..abbrev..Abbreviations$GT$$C$gimli..read..Error$GT$$C$alloc..alloc..Global$GT$$GT$17h886aec1819de5f5cE', symObjAddr: 0x25FC4, symBinAddr: 0x1F710, symSize: 0x84 }
  - { offset: 0x85890, size: 0x8, addend: 0x0, symName: '__ZN4core3ptr284drop_in_place$LT$core..result..Result$LT$$RF$core..result..Result$LT$addr2line..line..Lines$C$gimli..read..Error$GT$$C$$LP$$RF$core..result..Result$LT$addr2line..line..Lines$C$gimli..read..Error$GT$$C$core..result..Result$LT$addr2line..line..Lines$C$gimli..read..Error$GT$$RP$$GT$$GT$17he331a935851f963bE', symObjAddr: 0x26048, symBinAddr: 0x1F794, symSize: 0x10 }
  - { offset: 0x858C1, size: 0x8, addend: 0x0, symName: '__ZN4core3ptr42drop_in_place$LT$alloc..string..String$GT$17h38ea6ff68a2f6dd3E', symObjAddr: 0x261EC, symBinAddr: 0x1F7A4, symSize: 0x18 }
  - { offset: 0x858D8, size: 0x8, addend: 0x0, symName: '__ZN4core3ptr42drop_in_place$LT$alloc..string..String$GT$17h38ea6ff68a2f6dd3E', symObjAddr: 0x261EC, symBinAddr: 0x1F7A4, symSize: 0x18 }
  - { offset: 0x85980, size: 0x8, addend: 0x0, symName: '__ZN4core3ptr42drop_in_place$LT$std..io..error..Error$GT$17hb47a842e9535d8eaE', symObjAddr: 0x26204, symBinAddr: 0x1F7BC, symSize: 0xAC }
  - { offset: 0x85C0F, size: 0x8, addend: 0x0, symName: '__ZN4core3ptr44drop_in_place$LT$object..read..ObjectMap$GT$17h103a96db4b91fe12E', symObjAddr: 0x262B0, symBinAddr: 0x1F868, symSize: 0x58 }
  - { offset: 0x85D94, size: 0x8, addend: 0x0, symName: '__ZN4core3ptr46drop_in_place$LT$alloc..vec..Vec$LT$u8$GT$$GT$17ha092ea97ee9688bbE', symObjAddr: 0x263C8, symBinAddr: 0x1F8C0, symSize: 0x18 }
  - { offset: 0x85E3D, size: 0x8, addend: 0x0, symName: '__ZN4core3ptr46drop_in_place$LT$std..io..stdio..StdinLock$GT$17hda3059dbbe9b9703E', symObjAddr: 0x263E0, symBinAddr: 0x1F8D8, symSize: 0x54 }
  - { offset: 0x85E54, size: 0x8, addend: 0x0, symName: '__ZN4core3ptr46drop_in_place$LT$std..io..stdio..StdinLock$GT$17hda3059dbbe9b9703E', symObjAddr: 0x263E0, symBinAddr: 0x1F8D8, symSize: 0x54 }
  - { offset: 0x85E69, size: 0x8, addend: 0x0, symName: '__ZN4core3ptr46drop_in_place$LT$std..io..stdio..StdinLock$GT$17hda3059dbbe9b9703E', symObjAddr: 0x263E0, symBinAddr: 0x1F8D8, symSize: 0x54 }
  - { offset: 0x85F4A, size: 0x8, addend: 0x0, symName: '__ZN4core3ptr48drop_in_place$LT$alloc..ffi..c_str..NulError$GT$17h8df9e7e666a443fdE', symObjAddr: 0x26518, symBinAddr: 0x1F92C, symSize: 0x18 }
  - { offset: 0x85F61, size: 0x8, addend: 0x0, symName: '__ZN4core3ptr48drop_in_place$LT$alloc..ffi..c_str..NulError$GT$17h8df9e7e666a443fdE', symObjAddr: 0x26518, symBinAddr: 0x1F92C, symSize: 0x18 }
  - { offset: 0x86016, size: 0x8, addend: 0x0, symName: '__ZN4core3ptr557drop_in_place$LT$core..result..Result$LT$$RF$core..result..Result$LT$addr2line..function..Function$LT$gimli..read..endian_slice..EndianSlice$LT$gimli..endianity..LittleEndian$GT$$GT$$C$gimli..read..Error$GT$$C$$LP$$RF$core..result..Result$LT$addr2line..function..Function$LT$gimli..read..endian_slice..EndianSlice$LT$gimli..endianity..LittleEndian$GT$$GT$$C$gimli..read..Error$GT$$C$core..result..Result$LT$addr2line..function..Function$LT$gimli..read..endian_slice..EndianSlice$LT$gimli..endianity..LittleEndian$GT$$GT$$C$gimli..read..Error$GT$$RP$$GT$$GT$17haf2a8d06e6e1748dE', symObjAddr: 0x267FC, symBinAddr: 0x1F944, symSize: 0x64 }
  - { offset: 0x8624A, size: 0x8, addend: 0x0, symName: '__ZN4core3ptr55drop_in_place$LT$gimli..read..abbrev..Abbreviations$GT$17h467a83f64a5cda7bE', symObjAddr: 0x26860, symBinAddr: 0x1F9A8, symSize: 0x118 }
  - { offset: 0x8662B, size: 0x8, addend: 0x0, symName: '__ZN4core3ptr560drop_in_place$LT$core..result..Result$LT$$RF$core..result..Result$LT$addr2line..function..Functions$LT$gimli..read..endian_slice..EndianSlice$LT$gimli..endianity..LittleEndian$GT$$GT$$C$gimli..read..Error$GT$$C$$LP$$RF$core..result..Result$LT$addr2line..function..Functions$LT$gimli..read..endian_slice..EndianSlice$LT$gimli..endianity..LittleEndian$GT$$GT$$C$gimli..read..Error$GT$$C$core..result..Result$LT$addr2line..function..Functions$LT$gimli..read..endian_slice..EndianSlice$LT$gimli..endianity..LittleEndian$GT$$GT$$C$gimli..read..Error$GT$$RP$$GT$$GT$17h78a57019e46b5f10E', symObjAddr: 0x269FC, symBinAddr: 0x1FAC0, symSize: 0x10 }
  - { offset: 0x86682, size: 0x8, addend: 0x0, symName: '__ZN4core3ptr60drop_in_place$LT$gimli..read..abbrev..AbbreviationsCache$GT$17ha8930bb3c16fd23fE', symObjAddr: 0x26A0C, symBinAddr: 0x1FAD0, symSize: 0xCC }
  - { offset: 0x8682A, size: 0x8, addend: 0x0, symName: '__ZN4core3ptr61drop_in_place$LT$std..panicking..resume_unwind..RewrapBox$GT$17hcc2785daaffec95aE', symObjAddr: 0x26AD8, symBinAddr: 0x1FB9C, symSize: 0x6C }
  - { offset: 0x86978, size: 0x8, addend: 0x0, symName: '__ZN4core3ptr64drop_in_place$LT$std..sys..pal..unix..sync..mutex..AttrGuard$GT$17hf7f9c82cf23e8a3fE', symObjAddr: 0x26B44, symBinAddr: 0x1FC08, symSize: 0x44 }
  - { offset: 0x869B3, size: 0x8, addend: 0x0, symName: '__ZN4core3ptr65drop_in_place$LT$alloc..vec..Vec$LT$alloc..string..String$GT$$GT$17h5da31a873ae8dba7E', symObjAddr: 0x26C00, symBinAddr: 0x1FC4C, symSize: 0x80 }
  - { offset: 0x86B79, size: 0x8, addend: 0x0, symName: '__ZN4core3ptr65drop_in_place$LT$std..backtrace_rs..symbolize..gimli..Context$GT$17h34cca4caf72d8866E', symObjAddr: 0x26C80, symBinAddr: 0x1FCCC, symSize: 0xE8 }
  - { offset: 0x86E8B, size: 0x8, addend: 0x0, symName: '__ZN4core3ptr66drop_in_place$LT$std..backtrace_rs..backtrace..libunwind..Bomb$GT$17ha91bd52f658fe1d7E', symObjAddr: 0x26D6C, symBinAddr: 0x1FDB4, symSize: 0x28 }
  - { offset: 0x86EC1, size: 0x8, addend: 0x0, symName: '__ZN4core3ptr701drop_in_place$LT$core..result..Result$LT$$RF$core..result..Result$LT$core..option..Option$LT$alloc..boxed..Box$LT$addr2line..unit..DwoUnit$LT$gimli..read..endian_slice..EndianSlice$LT$gimli..endianity..LittleEndian$GT$$GT$$GT$$GT$$C$gimli..read..Error$GT$$C$$LP$$RF$core..result..Result$LT$core..option..Option$LT$alloc..boxed..Box$LT$addr2line..unit..DwoUnit$LT$gimli..read..endian_slice..EndianSlice$LT$gimli..endianity..LittleEndian$GT$$GT$$GT$$GT$$C$gimli..read..Error$GT$$C$core..result..Result$LT$core..option..Option$LT$alloc..boxed..Box$LT$addr2line..unit..DwoUnit$LT$gimli..read..endian_slice..EndianSlice$LT$gimli..endianity..LittleEndian$GT$$GT$$GT$$GT$$C$gimli..read..Error$GT$$RP$$GT$$GT$17hb5914df5ecaf4418E', symObjAddr: 0x26D94, symBinAddr: 0x1FDDC, symSize: 0x14 }
  - { offset: 0x86F59, size: 0x8, addend: 0x0, symName: '__ZN4core3ptr70drop_in_place$LT$std..backtrace_rs..symbolize..gimli..stash..Stash$GT$17hb592c439c896e374E', symObjAddr: 0x26E28, symBinAddr: 0x1FDF0, symSize: 0xB8 }
  - { offset: 0x8727D, size: 0x8, addend: 0x0, symName: '__ZN4core3ptr71drop_in_place$LT$std..backtrace_rs..symbolize..gimli..macho..Object$GT$17h2ca17ded4074048eE', symObjAddr: 0x26EE0, symBinAddr: 0x1FEA8, symSize: 0xD8 }
  - { offset: 0x87619, size: 0x8, addend: 0x0, symName: '__ZN4core3ptr71drop_in_place$LT$std..panicking..panic_handler..FormatStringPayload$GT$17h0901b0d590f03152E', symObjAddr: 0x26FB8, symBinAddr: 0x1FF80, symSize: 0x1C }
  - { offset: 0x876FF, size: 0x8, addend: 0x0, symName: '__ZN4core3ptr72drop_in_place$LT$core..option..Option$LT$object..read..ObjectMap$GT$$GT$17h3a9d8e00e9891a9bE', symObjAddr: 0x26FD4, symBinAddr: 0x1FF9C, symSize: 0x64 }
  - { offset: 0x878CD, size: 0x8, addend: 0x0, symName: '__ZN4core3ptr73drop_in_place$LT$alloc..vec..Vec$LT$addr2line..line..LineSequence$GT$$GT$17h0172abfa4ac0edebE', symObjAddr: 0x27038, symBinAddr: 0x20000, symSize: 0x84 }
  - { offset: 0x87A7A, size: 0x8, addend: 0x0, symName: '__ZN4core3ptr77drop_in_place$LT$alloc..boxed..Box$LT$$u5b$alloc..string..String$u5d$$GT$$GT$17haf832d073508a4aaE', symObjAddr: 0x270F4, symBinAddr: 0x20084, symSize: 0x70 }
  - { offset: 0x87A91, size: 0x8, addend: 0x0, symName: '__ZN4core3ptr77drop_in_place$LT$alloc..boxed..Box$LT$$u5b$alloc..string..String$u5d$$GT$$GT$17haf832d073508a4aaE', symObjAddr: 0x270F4, symBinAddr: 0x20084, symSize: 0x70 }
  - { offset: 0x87BE4, size: 0x8, addend: 0x0, symName: '__ZN4core3ptr79drop_in_place$LT$std..sync..poison..rwlock..RwLockReadGuard$LT$$LP$$RP$$GT$$GT$17h091e15822ffc9edbE', symObjAddr: 0x27194, symBinAddr: 0x200F4, symSize: 0x58 }
  - { offset: 0x87C7E, size: 0x8, addend: 0x0, symName: '__ZN4core3ptr81drop_in_place$LT$core..result..Result$LT$$LP$$RP$$C$std..io..error..Error$GT$$GT$17h814d80e6c8b246c2E', symObjAddr: 0x27298, symBinAddr: 0x2014C, symSize: 0x10 }
  - { offset: 0x87CAB, size: 0x8, addend: 0x0, symName: '__ZN4core3ptr82drop_in_place$LT$alloc..sync..ArcInner$LT$std..sys..fs..unix..InnerReadDir$GT$$GT$17h064c76c66badd045E', symObjAddr: 0x2737C, symBinAddr: 0x2015C, symSize: 0x60 }
  - { offset: 0x87ECA, size: 0x8, addend: 0x0, symName: '__ZN4core3ptr92drop_in_place$LT$core..result..Result$LT$addr2line..line..Lines$C$gimli..read..Error$GT$$GT$17hc66e02df388e03ecE', symObjAddr: 0x27510, symBinAddr: 0x201BC, symSize: 0xE4 }
  - { offset: 0x881BA, size: 0x8, addend: 0x0, symName: '__ZN4core3ptr93drop_in_place$LT$core..option..Option$LT$std..backtrace_rs..symbolize..gimli..Mapping$GT$$GT$17ha173ce148f3cf6eaE', symObjAddr: 0x275F4, symBinAddr: 0x202A0, symSize: 0x6C }
  - { offset: 0x8A227, size: 0x8, addend: 0x0, symName: __ZN4core5slice4sort8unstable7ipnsort17ha8a643003d62ef22E, symObjAddr: 0x31014, symBinAddr: 0x26E74, symSize: 0x1A8 }
  - { offset: 0x8A4F1, size: 0x8, addend: 0x0, symName: __ZN4core5slice4sort8unstable7ipnsort17hfe78c4a2b765fcc9E, symObjAddr: 0x311BC, symBinAddr: 0x2701C, symSize: 0xEC }
  - { offset: 0x8A647, size: 0x8, addend: 0x0, symName: __ZN4core5slice4sort8unstable8heapsort8heapsort17h573befcd8eda61e5E, symObjAddr: 0x312A8, symBinAddr: 0x27108, symSize: 0x160 }
  - { offset: 0x8A957, size: 0x8, addend: 0x0, symName: __ZN4core5slice4sort8unstable8heapsort8heapsort17hdca824869f99829bE, symObjAddr: 0x31408, symBinAddr: 0x27268, symSize: 0x100 }
  - { offset: 0x8ABE7, size: 0x8, addend: 0x0, symName: __ZN4core5slice4sort8unstable9quicksort9quicksort17h3638ec32060f422fE, symObjAddr: 0x31508, symBinAddr: 0x27368, symSize: 0x500 }
  - { offset: 0x8B691, size: 0x8, addend: 0x0, symName: __ZN4core5slice4sort8unstable9quicksort9quicksort17h6f43a7e4639d7d90E, symObjAddr: 0x31A08, symBinAddr: 0x27868, symSize: 0x3D8 }
  - { offset: 0x8BE4A, size: 0x8, addend: 0x0, symName: __ZN4core5slice4sort6stable14driftsort_main17h2b43a4226b91abb0E, symObjAddr: 0x2BD34, symBinAddr: 0x21B94, symSize: 0x150 }
  - { offset: 0x8C1E5, size: 0x8, addend: 0x0, symName: __ZN4core5slice4sort6stable14driftsort_main17h61a17d40716aa9c6E, symObjAddr: 0x2BE84, symBinAddr: 0x21CE4, symSize: 0x124 }
  - { offset: 0x8C560, size: 0x8, addend: 0x0, symName: __ZN4core5slice4sort6stable14driftsort_main17h8f5e0d127f8c5934E, symObjAddr: 0x2BFA8, symBinAddr: 0x21E08, symSize: 0x124 }
  - { offset: 0x8C8DB, size: 0x8, addend: 0x0, symName: __ZN4core5slice4sort6stable14driftsort_main17hb1e3406f075f1867E, symObjAddr: 0x2C0CC, symBinAddr: 0x21F2C, symSize: 0x124 }
  - { offset: 0x8CC56, size: 0x8, addend: 0x0, symName: __ZN4core5slice4sort6stable14driftsort_main17hc893b3697714d76aE, symObjAddr: 0x2C1F0, symBinAddr: 0x22050, symSize: 0x128 }
  - { offset: 0x8CEF9, size: 0x8, addend: 0x0, symName: __ZN4core5slice4sort6stable14driftsort_main17hcd30dcce867beb97E, symObjAddr: 0x2C318, symBinAddr: 0x22178, symSize: 0x150 }
  - { offset: 0x8D4A8, size: 0x8, addend: 0x0, symName: __ZN4core5slice4sort6stable5drift4sort17h5e38af9010a1a556E, symObjAddr: 0x2C468, symBinAddr: 0x222C8, symSize: 0x4F4 }
  - { offset: 0x8DB51, size: 0x8, addend: 0x0, symName: __ZN4core5slice4sort6stable5drift4sort17h80327560a6a1c94bE, symObjAddr: 0x2C95C, symBinAddr: 0x227BC, symSize: 0x4F4 }
  - { offset: 0x8E1FA, size: 0x8, addend: 0x0, symName: __ZN4core5slice4sort6stable5drift4sort17h8eec2dc203ad591bE, symObjAddr: 0x2CE50, symBinAddr: 0x22CB0, symSize: 0x540 }
  - { offset: 0x8E8B9, size: 0x8, addend: 0x0, symName: __ZN4core5slice4sort6stable5drift4sort17ha8d814c5c1d304f0E, symObjAddr: 0x2D390, symBinAddr: 0x231F0, symSize: 0x4D8 }
  - { offset: 0x8EECE, size: 0x8, addend: 0x0, symName: __ZN4core5slice4sort6stable5drift4sort17hc3241614963c3d1fE, symObjAddr: 0x2D868, symBinAddr: 0x236C8, symSize: 0x538 }
  - { offset: 0x8F561, size: 0x8, addend: 0x0, symName: __ZN4core5slice4sort6stable5drift4sort17hdb282faf6360b05fE, symObjAddr: 0x2DDA0, symBinAddr: 0x23C00, symSize: 0x5EC }
  - { offset: 0x8FE6F, size: 0x8, addend: 0x0, symName: __ZN4core5slice4sort6stable9quicksort9quicksort17h4dd0d1c0b49d71a6E, symObjAddr: 0x2E38C, symBinAddr: 0x241EC, symSize: 0x810 }
  - { offset: 0x90A5F, size: 0x8, addend: 0x0, symName: __ZN4core5slice4sort6stable9quicksort9quicksort17h5fbbd8b769a24b09E, symObjAddr: 0x2EB9C, symBinAddr: 0x249FC, symSize: 0x7FC }
  - { offset: 0x91A1B, size: 0x8, addend: 0x0, symName: __ZN4core5slice4sort6stable9quicksort9quicksort17h64319fbf65ad0bb7E, symObjAddr: 0x2F398, symBinAddr: 0x251F8, symSize: 0x6BC }
  - { offset: 0x924F8, size: 0x8, addend: 0x0, symName: __ZN4core5slice4sort6stable9quicksort9quicksort17h9cb0acdc055fe751E, symObjAddr: 0x2FA54, symBinAddr: 0x258B4, symSize: 0x720 }
  - { offset: 0x92C55, size: 0x8, addend: 0x0, symName: __ZN4core5slice4sort6stable9quicksort9quicksort17h9fd277f3d72f346bE, symObjAddr: 0x30174, symBinAddr: 0x25FD4, symSize: 0x7EC }
  - { offset: 0x93837, size: 0x8, addend: 0x0, symName: __ZN4core5slice4sort6stable9quicksort9quicksort17ha6e1efa1ee21f84aE, symObjAddr: 0x30960, symBinAddr: 0x267C0, symSize: 0x6B4 }
  - { offset: 0x943CC, size: 0x8, addend: 0x0, symName: __ZN4core5slice4sort6shared9smallsort12sort4_stable17h469156677824c224E, symObjAddr: 0x2AC08, symBinAddr: 0x20A68, symSize: 0x180 }
  - { offset: 0x947B5, size: 0x8, addend: 0x0, symName: __ZN4core5slice4sort6shared9smallsort12sort4_stable17h47cd5e0d6e97a400E, symObjAddr: 0x2AD88, symBinAddr: 0x20BE8, symSize: 0x194 }
  - { offset: 0x9498C, size: 0x8, addend: 0x0, symName: __ZN4core5slice4sort6shared9smallsort12sort8_stable17h50b2266a3ed37fa9E, symObjAddr: 0x2AF1C, symBinAddr: 0x20D7C, symSize: 0x2B8 }
  - { offset: 0x94E68, size: 0x8, addend: 0x0, symName: __ZN4core5slice4sort6shared9smallsort18small_sort_general17h6e7a9a9e6618d8a0E, symObjAddr: 0x2B1D4, symBinAddr: 0x21034, symSize: 0x490 }
  - { offset: 0x9557D, size: 0x8, addend: 0x0, symName: __ZN4core5slice4sort6shared9smallsort18small_sort_general17ha4bd61284e5c0765E, symObjAddr: 0x2B664, symBinAddr: 0x214C4, symSize: 0x3E8 }
  - { offset: 0x95AAA, size: 0x8, addend: 0x0, symName: __ZN4core5slice4sort6shared9smallsort25insertion_sort_shift_left17h5d52d1c7eb4e4745E, symObjAddr: 0x2BA4C, symBinAddr: 0x218AC, symSize: 0x94 }
  - { offset: 0x95B80, size: 0x8, addend: 0x0, symName: __ZN4core5slice4sort6shared9smallsort25insertion_sort_shift_left17h803c5d2110d164b3E, symObjAddr: 0x2BAE0, symBinAddr: 0x21940, symSize: 0xB8 }
  - { offset: 0x95CAB, size: 0x8, addend: 0x0, symName: __ZN4core5slice4sort6shared9smallsort25insertion_sort_shift_left17had99aba7dfc2ff8dE, symObjAddr: 0x2BB98, symBinAddr: 0x219F8, symSize: 0xA8 }
  - { offset: 0x95D74, size: 0x8, addend: 0x0, symName: __ZN4core5slice4sort6shared9smallsort25insertion_sort_shift_left17hd839558f15a084bbE, symObjAddr: 0x2BC40, symBinAddr: 0x21AA0, symSize: 0xF4 }
  - { offset: 0x96108, size: 0x8, addend: 0x0, symName: __ZN4core5slice4sort6shared5pivot11median3_rec17h1b560c2c546575d6E, symObjAddr: 0x2A4E4, symBinAddr: 0x20344, symSize: 0x11C }
  - { offset: 0x96216, size: 0x8, addend: 0x0, symName: __ZN4core5slice4sort6shared5pivot11median3_rec17h43f45571122837c6E, symObjAddr: 0x2A600, symBinAddr: 0x20460, symSize: 0xD0 }
  - { offset: 0x96323, size: 0x8, addend: 0x0, symName: __ZN4core5slice4sort6shared5pivot11median3_rec17h7c4642b45abcfdf3E, symObjAddr: 0x2A6D0, symBinAddr: 0x20530, symSize: 0xCC }
  - { offset: 0x9642E, size: 0x8, addend: 0x0, symName: __ZN4core5slice4sort6shared5pivot11median3_rec17ha4992078eee22457E, symObjAddr: 0x2A79C, symBinAddr: 0x205FC, symSize: 0x134 }
  - { offset: 0x96669, size: 0x8, addend: 0x0, symName: __ZN4core5slice4sort6shared5pivot11median3_rec17hb44e75e610ba05a4E, symObjAddr: 0x2A8D0, symBinAddr: 0x20730, symSize: 0xD0 }
  - { offset: 0x96774, size: 0x8, addend: 0x0, symName: __ZN4core5slice4sort6shared5pivot11median3_rec17hb71c969603cdb7f6E, symObjAddr: 0x2A9A0, symBinAddr: 0x20800, symSize: 0xCC }
  - { offset: 0x9687F, size: 0x8, addend: 0x0, symName: __ZN4core5slice4sort6shared5pivot11median3_rec17hc544ad2542f3ad8eE, symObjAddr: 0x2AA6C, symBinAddr: 0x208CC, symSize: 0xD0 }
  - { offset: 0x9698A, size: 0x8, addend: 0x0, symName: __ZN4core5slice4sort6shared5pivot11median3_rec17hd6004b59113fbfecE, symObjAddr: 0x2AB3C, symBinAddr: 0x2099C, symSize: 0xCC }
  - { offset: 0x971F4, size: 0x8, addend: 0x0, symName: __ZN4core5panic12PanicPayload6as_str17h14346476792e989cE, symObjAddr: 0x2A4DC, symBinAddr: 0x2033C, symSize: 0x8 }
  - { offset: 0x987EB, size: 0x8, addend: 0x0, symName: '__ZN42_$LT$$RF$T$u20$as$u20$core..fmt..Debug$GT$3fmt17h177c428d5772590dE', symObjAddr: 0x22E84, symBinAddr: 0x1E194, symSize: 0x1C }
  - { offset: 0x98840, size: 0x8, addend: 0x0, symName: '__ZN42_$LT$$RF$T$u20$as$u20$core..fmt..Debug$GT$3fmt17h8fb107d9d93bf5f3E', symObjAddr: 0x23524, symBinAddr: 0x1E1B0, symSize: 0x1C }
  - { offset: 0x98887, size: 0x8, addend: 0x0, symName: '__ZN42_$LT$$RF$T$u20$as$u20$core..fmt..Debug$GT$3fmt17ha66933743b08b6feE', symObjAddr: 0x23590, symBinAddr: 0x1E1CC, symSize: 0x74 }
  - { offset: 0x9899E, size: 0x8, addend: 0x0, symName: '__ZN42_$LT$$RF$T$u20$as$u20$core..fmt..Debug$GT$3fmt17hc73e4cddec4aa4f1E', symObjAddr: 0x23804, symBinAddr: 0x1E240, symSize: 0x10 }
  - { offset: 0x989B2, size: 0x8, addend: 0x0, symName: '__ZN42_$LT$$RF$T$u20$as$u20$core..fmt..Debug$GT$3fmt17hda426fb11ecf83d1E', symObjAddr: 0x23910, symBinAddr: 0x1E250, symSize: 0x10 }
  - { offset: 0x98A23, size: 0x8, addend: 0x0, symName: '__ZN4core3fmt3num50_$LT$impl$u20$core..fmt..Debug$u20$for$u20$i32$GT$3fmt17h26d61a2b80e79249E', symObjAddr: 0x23DC4, symBinAddr: 0x1E2D0, symSize: 0x18 }
  - { offset: 0x98A3B, size: 0x8, addend: 0x0, symName: '__ZN4core3fmt3num50_$LT$impl$u20$core..fmt..Debug$u20$for$u20$i32$GT$3fmt17h26d61a2b80e79249E', symObjAddr: 0x23DC4, symBinAddr: 0x1E2D0, symSize: 0x18 }
  - { offset: 0x98A54, size: 0x8, addend: 0x0, symName: '__ZN4core3fmt3num52_$LT$impl$u20$core..fmt..Debug$u20$for$u20$usize$GT$3fmt17hddf28bd83d4a73e6E', symObjAddr: 0x23E24, symBinAddr: 0x1E2E8, symSize: 0x18 }
  - { offset: 0x98A6C, size: 0x8, addend: 0x0, symName: '__ZN4core3fmt3num52_$LT$impl$u20$core..fmt..Debug$u20$for$u20$usize$GT$3fmt17hddf28bd83d4a73e6E', symObjAddr: 0x23E24, symBinAddr: 0x1E2E8, symSize: 0x18 }
  - { offset: 0x98AA6, size: 0x8, addend: 0x0, symName: '__ZN44_$LT$$RF$T$u20$as$u20$core..fmt..Display$GT$3fmt17he413baf87c2d405bE', symObjAddr: 0x23A0C, symBinAddr: 0x1E260, symSize: 0x60 }
  - { offset: 0x98B1D, size: 0x8, addend: 0x0, symName: '__ZN44_$LT$$RF$T$u20$as$u20$core..fmt..Display$GT$3fmt17hf44a69cad7166c3fE', symObjAddr: 0x23A6C, symBinAddr: 0x1E2C0, symSize: 0x10 }
  - { offset: 0x98B58, size: 0x8, addend: 0x0, symName: __ZN4core3fmt5Write10write_char17h319fd9fe76fafdd3E, symObjAddr: 0x23FA4, symBinAddr: 0x1E300, symSize: 0x128 }
  - { offset: 0x98BD2, size: 0x8, addend: 0x0, symName: __ZN4core3fmt5Write10write_char17h97051c7b8f065692E, symObjAddr: 0x240CC, symBinAddr: 0x1E428, symSize: 0x138 }
  - { offset: 0x98D65, size: 0x8, addend: 0x0, symName: __ZN4core3fmt5Write10write_char17hcd7ef45195c85d9dE, symObjAddr: 0x24204, symBinAddr: 0x1E560, symSize: 0x110 }
  - { offset: 0x98F19, size: 0x8, addend: 0x0, symName: __ZN4core3fmt5Write10write_char17he147b3d3d9aec1baE, symObjAddr: 0x24314, symBinAddr: 0x1E670, symSize: 0x168 }
  - { offset: 0x990AF, size: 0x8, addend: 0x0, symName: __ZN4core3fmt5Write9write_fmt17h538713431ac351bfE, symObjAddr: 0x245A4, symBinAddr: 0x1E7D8, symSize: 0x14 }
  - { offset: 0x990DE, size: 0x8, addend: 0x0, symName: __ZN4core3fmt5Write9write_fmt17h8ef5f396dd60f23fE, symObjAddr: 0x245B8, symBinAddr: 0x1E7EC, symSize: 0x14 }
  - { offset: 0x9910D, size: 0x8, addend: 0x0, symName: __ZN4core3fmt5Write9write_fmt17h98e28ebb511e0c3fE, symObjAddr: 0x245CC, symBinAddr: 0x1E800, symSize: 0x14 }
  - { offset: 0x9913C, size: 0x8, addend: 0x0, symName: __ZN4core3fmt5Write9write_fmt17ha89f7cbf0420f3c3E, symObjAddr: 0x245E0, symBinAddr: 0x1E814, symSize: 0x14 }
  - { offset: 0x9916B, size: 0x8, addend: 0x0, symName: __ZN4core3fmt5Write9write_fmt17hd0c7c5de1e8c1578E, symObjAddr: 0x2461C, symBinAddr: 0x1E828, symSize: 0x14 }
  - { offset: 0x991C6, size: 0x8, addend: 0x0, symName: '__ZN50_$LT$$BP$mut$u20$T$u20$as$u20$core..fmt..Debug$GT$3fmt17hf3eb8438fbbf3411E', symObjAddr: 0x31E90, symBinAddr: 0x27C40, symSize: 0x8 }
  - { offset: 0x991E4, size: 0x8, addend: 0x0, symName: '__ZN50_$LT$$BP$mut$u20$T$u20$as$u20$core..fmt..Debug$GT$3fmt17hf3eb8438fbbf3411E', symObjAddr: 0x31E90, symBinAddr: 0x27C40, symSize: 0x8 }
  - { offset: 0x99213, size: 0x8, addend: 0x0, symName: '__ZN52_$LT$$RF$mut$u20$T$u20$as$u20$core..fmt..Display$GT$3fmt17hd4ecd60d35c8f9e8E', symObjAddr: 0x3245C, symBinAddr: 0x27C48, symSize: 0x10 }
  - { offset: 0x99293, size: 0x8, addend: 0x0, symName: '__ZN4core3ops8function6FnOnce40call_once$u7b$$u7b$vtable.shim$u7d$$u7d$17h4218539377a2a1b5E', symObjAddr: 0x24934, symBinAddr: 0x1E83C, symSize: 0xC }
  - { offset: 0x992E3, size: 0x8, addend: 0x0, symName: '__ZN4core3ops8function6FnOnce40call_once$u7b$$u7b$vtable.shim$u7d$$u7d$17h4e6c8110069f19edE', symObjAddr: 0x24940, symBinAddr: 0x1E848, symSize: 0xC }
  - { offset: 0x99333, size: 0x8, addend: 0x0, symName: '__ZN4core3ops8function6FnOnce40call_once$u7b$$u7b$vtable.shim$u7d$$u7d$17h8aec2d2e62ce5f2eE', symObjAddr: 0x24AAC, symBinAddr: 0x1E854, symSize: 0x98 }
  - { offset: 0x994A3, size: 0x8, addend: 0x0, symName: '__ZN4core3ops8function6FnOnce40call_once$u7b$$u7b$vtable.shim$u7d$$u7d$17h9d3a33d4686cf935E', symObjAddr: 0x24B84, symBinAddr: 0x1E8EC, symSize: 0x4 }
  - { offset: 0x994C0, size: 0x8, addend: 0x0, symName: '__ZN4core3ops8function6FnOnce40call_once$u7b$$u7b$vtable.shim$u7d$$u7d$17h9d3a33d4686cf935E', symObjAddr: 0x24B84, symBinAddr: 0x1E8EC, symSize: 0x4 }
  - { offset: 0x994DE, size: 0x8, addend: 0x0, symName: '__ZN4core3ops8function6FnOnce40call_once$u7b$$u7b$vtable.shim$u7d$$u7d$17hb601ef05c40b5e16E', symObjAddr: 0x24BF4, symBinAddr: 0x1E8F0, symSize: 0x4 }
  - { offset: 0x994FB, size: 0x8, addend: 0x0, symName: '__ZN4core3ops8function6FnOnce40call_once$u7b$$u7b$vtable.shim$u7d$$u7d$17hb601ef05c40b5e16E', symObjAddr: 0x24BF4, symBinAddr: 0x1E8F0, symSize: 0x4 }
  - { offset: 0x9A0C3, size: 0x8, addend: 0x0, symName: '__ZN36_$LT$T$u20$as$u20$core..any..Any$GT$7type_id17h39e909e33a34436fE', symObjAddr: 0xC94, symBinAddr: 0x1409C, symSize: 0x14 }
  - { offset: 0x9A0E0, size: 0x8, addend: 0x0, symName: '__ZN36_$LT$T$u20$as$u20$core..any..Any$GT$7type_id17h39e909e33a34436fE', symObjAddr: 0xC94, symBinAddr: 0x1409C, symSize: 0x14 }
  - { offset: 0x9A0F2, size: 0x8, addend: 0x0, symName: '__ZN36_$LT$T$u20$as$u20$core..any..Any$GT$7type_id17h9d86f0f0caa268bbE', symObjAddr: 0xCA8, symBinAddr: 0x140B0, symSize: 0x14 }
  - { offset: 0x9A10F, size: 0x8, addend: 0x0, symName: '__ZN36_$LT$T$u20$as$u20$core..any..Any$GT$7type_id17h9d86f0f0caa268bbE', symObjAddr: 0xCA8, symBinAddr: 0x140B0, symSize: 0x14 }
  - { offset: 0x9A121, size: 0x8, addend: 0x0, symName: '__ZN36_$LT$T$u20$as$u20$core..any..Any$GT$7type_id17hd2a7cca6abfee825E', symObjAddr: 0xCBC, symBinAddr: 0x140C4, symSize: 0x14 }
  - { offset: 0x9A13E, size: 0x8, addend: 0x0, symName: '__ZN36_$LT$T$u20$as$u20$core..any..Any$GT$7type_id17hd2a7cca6abfee825E', symObjAddr: 0xCBC, symBinAddr: 0x140C4, symSize: 0x14 }
  - { offset: 0x9B5FF, size: 0x8, addend: 0x0, symName: '__ZN4core4cell4once17OnceCell$LT$T$GT$8try_init17h12931ad8a233136dE', symObjAddr: 0x27758, symBinAddr: 0x42C54, symSize: 0x68 }
  - { offset: 0x9B69A, size: 0x8, addend: 0x0, symName: '__ZN4core4cell4once17OnceCell$LT$T$GT$8try_init17h5e539301376400ccE', symObjAddr: 0x277C0, symBinAddr: 0x42CBC, symSize: 0x48 }
  - { offset: 0x9B6B8, size: 0x8, addend: 0x0, symName: '__ZN4core4cell4once17OnceCell$LT$T$GT$8try_init17h5e539301376400ccE', symObjAddr: 0x277C0, symBinAddr: 0x42CBC, symSize: 0x48 }
  - { offset: 0x9B6CD, size: 0x8, addend: 0x0, symName: '__ZN4core4cell4once17OnceCell$LT$T$GT$8try_init17h5e539301376400ccE', symObjAddr: 0x277C0, symBinAddr: 0x42CBC, symSize: 0x48 }
  - { offset: 0x9B6E1, size: 0x8, addend: 0x0, symName: '__ZN4core4cell4once17OnceCell$LT$T$GT$8try_init17h5e539301376400ccE', symObjAddr: 0x277C0, symBinAddr: 0x42CBC, symSize: 0x48 }
  - { offset: 0x9B720, size: 0x8, addend: 0x0, symName: '__ZN4core4cell4once17OnceCell$LT$T$GT$8try_init17h62b732aaca9d52ccE', symObjAddr: 0x27808, symBinAddr: 0x42D04, symSize: 0xFC }
  - { offset: 0x9B9D1, size: 0x8, addend: 0x0, symName: '__ZN4core4cell4once17OnceCell$LT$T$GT$8try_init17ha23576e2981dd856E', symObjAddr: 0x27904, symBinAddr: 0x42E00, symSize: 0x186C }
  - { offset: 0x9F44F, size: 0x8, addend: 0x0, symName: '__ZN4core4cell4once17OnceCell$LT$T$GT$8try_init17hb89f7791510a2e51E', symObjAddr: 0x29170, symBinAddr: 0x4466C, symSize: 0xBE4 }
  - { offset: 0xA0FB5, size: 0x8, addend: 0x0, symName: '__ZN4core4cell4once17OnceCell$LT$T$GT$8try_init17hbb24d07687c9cbd6E', symObjAddr: 0x29D54, symBinAddr: 0x45250, symSize: 0x62C }
  - { offset: 0xA2109, size: 0x8, addend: 0x0, symName: '__ZN55_$LT$$RF$str$u20$as$u20$core..str..pattern..Pattern$GT$15is_contained_in17h469e9c347de94ef2E', symObjAddr: 0x32A48, symBinAddr: 0x27C58, symSize: 0x3C0 }
  - { offset: 0xA266A, size: 0x8, addend: 0x0, symName: __ZN4core5error5Error11description17h8e35abec80ad84e6E, symObjAddr: 0x2A47C, symBinAddr: 0x2030C, symSize: 0x10 }
  - { offset: 0xA2685, size: 0x8, addend: 0x0, symName: __ZN4core5error5Error5cause17h953b607faec97eafE, symObjAddr: 0x2A49C, symBinAddr: 0x2031C, symSize: 0x8 }
  - { offset: 0xA26A0, size: 0x8, addend: 0x0, symName: __ZN4core5error5Error7provide17hc570ba63aa6f105dE, symObjAddr: 0x2A4B0, symBinAddr: 0x20324, symSize: 0x4 }
  - { offset: 0xA26BC, size: 0x8, addend: 0x0, symName: __ZN4core5error5Error7type_id17hfbe707ce9411fd4cE, symObjAddr: 0x2A4C8, symBinAddr: 0x20328, symSize: 0x14 }
  - { offset: 0xA26DB, size: 0x8, addend: 0x0, symName: __ZN4core5error5Error7type_id17hfbe707ce9411fd4cE, symObjAddr: 0x2A4C8, symBinAddr: 0x20328, symSize: 0x14 }
  - { offset: 0xA26F5, size: 0x8, addend: 0x0, symName: __ZN4core9panicking13assert_failed17h1a99d922c16cfdaeE, symObjAddr: 0x31E08, symBinAddr: 0x4587C, symSize: 0x28 }
  - { offset: 0xA29E2, size: 0x8, addend: 0x0, symName: __ZN5alloc5alloc15exchange_malloc17h2651c83eb5e8d63cE, symObjAddr: 0x396F4, symBinAddr: 0x28938, symSize: 0x48 }
  - { offset: 0xA380D, size: 0x8, addend: 0x0, symName: '__ZN64_$LT$alloc..ffi..c_str..NulError$u20$as$u20$core..fmt..Debug$GT$3fmt17h332fbd8e6a73c2d4E', symObjAddr: 0x447E8, symBinAddr: 0x2FE24, symSize: 0x4C }
  - { offset: 0xA3CB8, size: 0x8, addend: 0x0, symName: '__ZN5alloc11collections5btree3map25IntoIter$LT$K$C$V$C$A$GT$10dying_next17hb1b3a96cd69b8fe7E', symObjAddr: 0x3713C, symBinAddr: 0x281CC, symSize: 0x204 }
  - { offset: 0xA40B7, size: 0x8, addend: 0x0, symName: '__ZN5alloc11collections5btree3map25IntoIter$LT$K$C$V$C$A$GT$10dying_next17hd46bd43dd487bf34E', symObjAddr: 0x37340, symBinAddr: 0x283D0, symSize: 0x204 }
  - { offset: 0xA4B1E, size: 0x8, addend: 0x0, symName: '__ZN5alloc7raw_vec20RawVecInner$LT$A$GT$11finish_grow17h49b462f7651a4ea0E', symObjAddr: 0x39C44, symBinAddr: 0x45D44, symSize: 0x94 }
  - { offset: 0xA4C3A, size: 0x8, addend: 0x0, symName: '__ZN5alloc7raw_vec20RawVecInner$LT$A$GT$11finish_grow17h8d45e48f1584e635E', symObjAddr: 0x39CD8, symBinAddr: 0x45DD8, symSize: 0xC4 }
  - { offset: 0xA4DE7, size: 0x8, addend: 0x0, symName: '__ZN5alloc7raw_vec20RawVecInner$LT$A$GT$14grow_amortized17h03e509d45a4990d0E', symObjAddr: 0x39D9C, symBinAddr: 0x45E9C, symSize: 0x70 }
  - { offset: 0xA5392, size: 0x8, addend: 0x0, symName: '__ZN5alloc7raw_vec19RawVec$LT$T$C$A$GT$8grow_one17h0b3d4fedf5981691E', symObjAddr: 0x3973C, symBinAddr: 0x458A4, symSize: 0x68 }
  - { offset: 0xA5415, size: 0x8, addend: 0x0, symName: '__ZN5alloc7raw_vec19RawVec$LT$T$C$A$GT$8grow_one17h1c6eeff65bf6bc15E', symObjAddr: 0x397A4, symBinAddr: 0x4590C, symSize: 0x68 }
  - { offset: 0xA5498, size: 0x8, addend: 0x0, symName: '__ZN5alloc7raw_vec19RawVec$LT$T$C$A$GT$8grow_one17h20c64cf665f15fe4E', symObjAddr: 0x3980C, symBinAddr: 0x45974, symSize: 0x68 }
  - { offset: 0xA551B, size: 0x8, addend: 0x0, symName: '__ZN5alloc7raw_vec19RawVec$LT$T$C$A$GT$8grow_one17h37078fe3e5146b92E', symObjAddr: 0x39874, symBinAddr: 0x459DC, symSize: 0x68 }
  - { offset: 0xA559E, size: 0x8, addend: 0x0, symName: '__ZN5alloc7raw_vec19RawVec$LT$T$C$A$GT$8grow_one17h39087719d60c73baE', symObjAddr: 0x398DC, symBinAddr: 0x45A44, symSize: 0x68 }
  - { offset: 0xA5621, size: 0x8, addend: 0x0, symName: '__ZN5alloc7raw_vec19RawVec$LT$T$C$A$GT$8grow_one17h46115a12f843e2d3E', symObjAddr: 0x39944, symBinAddr: 0x45AAC, symSize: 0x68 }
  - { offset: 0xA56A4, size: 0x8, addend: 0x0, symName: '__ZN5alloc7raw_vec19RawVec$LT$T$C$A$GT$8grow_one17h4f33bfe902b32a40E', symObjAddr: 0x399AC, symBinAddr: 0x45B14, symSize: 0x68 }
  - { offset: 0xA5727, size: 0x8, addend: 0x0, symName: '__ZN5alloc7raw_vec19RawVec$LT$T$C$A$GT$8grow_one17h57e45b391f3477e0E', symObjAddr: 0x39A14, symBinAddr: 0x45B7C, symSize: 0x68 }
  - { offset: 0xA57AA, size: 0x8, addend: 0x0, symName: '__ZN5alloc7raw_vec19RawVec$LT$T$C$A$GT$8grow_one17h64dcbdae873e076bE', symObjAddr: 0x39A7C, symBinAddr: 0x45BE4, symSize: 0x68 }
  - { offset: 0xA582D, size: 0x8, addend: 0x0, symName: '__ZN5alloc7raw_vec19RawVec$LT$T$C$A$GT$8grow_one17h69061b0f18a0f860E', symObjAddr: 0x39AE4, symBinAddr: 0x45C4C, symSize: 0x28 }
  - { offset: 0xA5854, size: 0x8, addend: 0x0, symName: '__ZN5alloc7raw_vec19RawVec$LT$T$C$A$GT$8grow_one17ha3dab7cb867393e3E', symObjAddr: 0x39B0C, symBinAddr: 0x45C74, symSize: 0x68 }
  - { offset: 0xA58D7, size: 0x8, addend: 0x0, symName: '__ZN5alloc7raw_vec19RawVec$LT$T$C$A$GT$8grow_one17ha689bd2f7dcd7353E', symObjAddr: 0x39B74, symBinAddr: 0x45CDC, symSize: 0x68 }
  - { offset: 0xA5BBE, size: 0x8, addend: 0x0, symName: '__ZN5alloc7raw_vec20RawVecInner$LT$A$GT$7reserve21do_reserve_and_handle17h90344aef1e9872a3E', symObjAddr: 0x39E0C, symBinAddr: 0x45F0C, symSize: 0x8C }
  - { offset: 0xA5D95, size: 0x8, addend: 0x0, symName: '__ZN58_$LT$alloc..string..String$u20$as$u20$core..fmt..Debug$GT$3fmt17h099397a60a292922E', symObjAddr: 0x33D8C, symBinAddr: 0x28018, symSize: 0x10 }
  - { offset: 0xA5E4F, size: 0x8, addend: 0x0, symName: '__ZN58_$LT$alloc..string..String$u20$as$u20$core..fmt..Write$GT$10write_char17h9904efafb51f78b8E', symObjAddr: 0x33D9C, symBinAddr: 0x28028, symSize: 0x120 }
  - { offset: 0xA5FEE, size: 0x8, addend: 0x0, symName: '__ZN58_$LT$alloc..string..String$u20$as$u20$core..fmt..Write$GT$9write_str17h3ffaf0979099dce0E', symObjAddr: 0x33EBC, symBinAddr: 0x28148, symSize: 0x80 }
  - { offset: 0xA6147, size: 0x8, addend: 0x0, symName: '__ZN60_$LT$alloc..string..String$u20$as$u20$core..fmt..Display$GT$3fmt17h620931148dfbd646E', symObjAddr: 0x40DA0, symBinAddr: 0x2F888, symSize: 0x10 }
  - { offset: 0xA6571, size: 0x8, addend: 0x0, symName: '__ZN5alloc4sync16Arc$LT$T$C$A$GT$9drop_slow17h3dfbf94c2de416b8E', symObjAddr: 0x39390, symBinAddr: 0x285D4, symSize: 0x98 }
  - { offset: 0xA6768, size: 0x8, addend: 0x0, symName: '__ZN5alloc4sync16Arc$LT$T$C$A$GT$9drop_slow17h48a6351c7f0b3554E', symObjAddr: 0x39428, symBinAddr: 0x2866C, symSize: 0x70 }
  - { offset: 0xA695F, size: 0x8, addend: 0x0, symName: '__ZN5alloc4sync16Arc$LT$T$C$A$GT$9drop_slow17h90872bb592eff208E', symObjAddr: 0x39498, symBinAddr: 0x286DC, symSize: 0xD0 }
  - { offset: 0xA6BCE, size: 0x8, addend: 0x0, symName: '__ZN5alloc4sync16Arc$LT$T$C$A$GT$9drop_slow17h9d4d3e529ec9deb6E', symObjAddr: 0x39568, symBinAddr: 0x287AC, symSize: 0x2C }
  - { offset: 0xA6CAB, size: 0x8, addend: 0x0, symName: '__ZN5alloc4sync16Arc$LT$T$C$A$GT$9drop_slow17hcdc4884edf2028d1E', symObjAddr: 0x39594, symBinAddr: 0x287D8, symSize: 0xA0 }
  - { offset: 0xA7025, size: 0x8, addend: 0x0, symName: '__ZN5alloc4sync16Arc$LT$T$C$A$GT$9drop_slow17hfb67952ed4e6e214E', symObjAddr: 0x39634, symBinAddr: 0x28878, symSize: 0xC0 }
  - { offset: 0xA7B87, size: 0x8, addend: 0x0, symName: __ZN6object4read7archive13ArchiveMember5parse17h9aa31a58ad5b9544E, symObjAddr: 0x45FD8, symBinAddr: 0x2FFD4, symSize: 0x598 }
  - { offset: 0xA8EE8, size: 0x8, addend: 0x0, symName: '__ZN9addr2line4unit16ResUnit$LT$R$GT$25find_function_or_location28_$u7b$$u7b$closure$u7d$$u7d$17h4e866b147d18c9b8E', symObjAddr: 0x4CBD8, symBinAddr: 0x32370, symSize: 0x310 }
  - { offset: 0xA9274, size: 0x8, addend: 0x0, symName: '__ZN9addr2line4unit16ResUnit$LT$R$GT$25find_function_or_location17hafbc6b9d9ff53700E', symObjAddr: 0x4C858, symBinAddr: 0x31FF0, symSize: 0x380 }
  - { offset: 0xA978F, size: 0x8, addend: 0x0, symName: '__ZN9addr2line16Context$LT$R$GT$9find_unit17h485426245181a6dcE', symObjAddr: 0x4C28C, symBinAddr: 0x31A24, symSize: 0x15C }
  - { offset: 0xA990D, size: 0x8, addend: 0x0, symName: '__ZN9addr2line6lookup30LoopingLookup$LT$T$C$L$C$F$GT$10new_lookup17hb2f1ecfb9b5a84caE', symObjAddr: 0x4D1A8, symBinAddr: 0x32940, symSize: 0x430 }
  - { offset: 0xA9EF3, size: 0x8, addend: 0x0, symName: __ZN9addr2line4line11render_file17h085773b8bac0fe9eE, symObjAddr: 0x4C3E8, symBinAddr: 0x31B80, symSize: 0x470 }
  - { offset: 0xAA9DD, size: 0x8, addend: 0x0, symName: '__ZN9addr2line8function17Function$LT$R$GT$14parse_children17h2b0cdfd636c6d6deE', symObjAddr: 0x4D93C, symBinAddr: 0x330D4, symSize: 0xE7C }
  - { offset: 0xAC27E, size: 0x8, addend: 0x0, symName: __ZN9addr2line8function10name_entry17h5366dd95e36d4758E, symObjAddr: 0x4D5D8, symBinAddr: 0x32D70, symSize: 0x364 }
  - { offset: 0xAC76C, size: 0x8, addend: 0x0, symName: __ZN9addr2line8function9name_attr17hccbb54a0d73a1a8bE, symObjAddr: 0x4E7B8, symBinAddr: 0x33F50, symSize: 0x1C0 }
  - { offset: 0xAC957, size: 0x8, addend: 0x0, symName: '__ZN9addr2line5frame18FrameIter$LT$R$GT$4next17h2ba3b0627a0239ceE', symObjAddr: 0x4CEE8, symBinAddr: 0x32680, symSize: 0x2C0 }
  - { offset: 0xAD29F, size: 0x8, addend: 0x0, symName: '__ZN5gimli4read5dwarf14Dwarf$LT$R$GT$11attr_string17he154349ba08be5a0E', symObjAddr: 0x3EFA4, symBinAddr: 0x2DA8C, symSize: 0x220 }
  - { offset: 0xAD951, size: 0x8, addend: 0x0, symName: '__ZN5gimli4read5dwarf13Unit$LT$R$GT$3new17h400d9e244b1626a5E', symObjAddr: 0x3D334, symBinAddr: 0x2BE1C, symSize: 0x1C70 }
  - { offset: 0xB12C3, size: 0x8, addend: 0x0, symName: '__ZN5gimli4read7aranges30ArangeHeader$LT$R$C$Offset$GT$5parse17h20d51668ce2d6637E', symObjAddr: 0x3FE24, symBinAddr: 0x2E90C, symSize: 0x2A8 }
  - { offset: 0xB1C8B, size: 0x8, addend: 0x0, symName: '__ZN5gimli4read4unit18Attribute$LT$R$GT$5value17h81c3099e26c0e9d3E', symObjAddr: 0x3C3E4, symBinAddr: 0x2AECC, symSize: 0x654 }
  - { offset: 0xB2063, size: 0x8, addend: 0x0, symName: '__ZN90_$LT$gimli..read..unit..AttributeValue$LT$R$C$Offset$GT$$u20$as$u20$core..clone..Clone$GT$5clone17hef8533b4a5b56874E', symObjAddr: 0x4AFCC, symBinAddr: 0x31188, symSize: 0x68 }
  - { offset: 0xB20BE, size: 0x8, addend: 0x0, symName: '__ZN5gimli4read4unit32AttributeValue$LT$R$C$Offset$GT$8u8_value17h6289747ce1bc1c8aE', symObjAddr: 0x3CCF0, symBinAddr: 0x2B7D8, symSize: 0x94 }
  - { offset: 0xB20F4, size: 0x8, addend: 0x0, symName: '__ZN5gimli4read4unit32AttributeValue$LT$R$C$Offset$GT$9u16_value17h78f20af31e13b996E', symObjAddr: 0x3CD84, symBinAddr: 0x2B86C, symSize: 0x94 }
  - { offset: 0xB216B, size: 0x8, addend: 0x0, symName: __ZN5gimli4read4unit15parse_attribute17h8c90b5e54a619388E, symObjAddr: 0x3B004, symBinAddr: 0x29AEC, symSize: 0xF74 }
  - { offset: 0xB49AB, size: 0x8, addend: 0x0, symName: __ZN5gimli4read4unit15skip_attributes17hbaf24547b98a9a8eE, symObjAddr: 0x3BF78, symBinAddr: 0x2AA60, symSize: 0x46C }
  - { offset: 0xB5273, size: 0x8, addend: 0x0, symName: '__ZN5gimli4read4unit22EntriesCursor$LT$R$GT$10next_entry17h6a357731a4552903E', symObjAddr: 0x3CA38, symBinAddr: 0x2B520, symSize: 0x2B8 }
  - { offset: 0xB5816, size: 0x8, addend: 0x0, symName: '__ZN5gimli4read4unit33DebugInfoUnitHeadersIter$LT$R$GT$4next17h6fead1a387021658E', symObjAddr: 0x3CE18, symBinAddr: 0x2B900, symSize: 0x51C }
  - { offset: 0xB6A07, size: 0x8, addend: 0x0, symName: __ZN5gimli4read6reader6Reader11read_offset17hf7d76506f84029ebE, symObjAddr: 0x3F970, symBinAddr: 0x2E458, symSize: 0xB4 }
  - { offset: 0xB6BFB, size: 0x8, addend: 0x0, symName: __ZN5gimli4read6reader6Reader12read_sleb12817h6d90c181d967cff9E, symObjAddr: 0x3FA24, symBinAddr: 0x2E50C, symSize: 0x23C }
  - { offset: 0xB6CC8, size: 0x8, addend: 0x0, symName: __ZN5gimli4read6reader6Reader12read_uleb12817hfc663b7a6ef2b5adE, symObjAddr: 0x3FC60, symBinAddr: 0x2E748, symSize: 0xB8 }
  - { offset: 0xB6D84, size: 0x8, addend: 0x0, symName: __ZN5gimli4read6reader6Reader17read_sized_offset17h01b647283d461fdfE, symObjAddr: 0x3FD18, symBinAddr: 0x2E800, symSize: 0x10C }
  - { offset: 0xB73A3, size: 0x8, addend: 0x0, symName: '__ZN5gimli4read8rnglists20RngListIter$LT$R$GT$4next17heee1885f9dd2ec49E', symObjAddr: 0x400CC, symBinAddr: 0x2EBB4, symSize: 0xCD4 }
  - { offset: 0xB9B89, size: 0x8, addend: 0x0, symName: '__ZN5gimli4read5index18UnitIndex$LT$R$GT$5parse17hafff2d54389f565fE', symObjAddr: 0x3F1C4, symBinAddr: 0x2DCAC, symSize: 0x7AC }
  - { offset: 0xBA260, size: 0x8, addend: 0x0, symName: '__ZN5gimli4read4line27FileEntry$LT$R$C$Offset$GT$5parse17h2c6ab2f1a36bd80aE', symObjAddr: 0x3ADE8, symBinAddr: 0x298D0, symSize: 0x21C }
  - { offset: 0xBA51E, size: 0x8, addend: 0x0, symName: __ZN5gimli4read4line13parse_file_v517h94b73e56932facadE, symObjAddr: 0x39E98, symBinAddr: 0x28980, symSize: 0x2A8 }
  - { offset: 0xBA6C4, size: 0x8, addend: 0x0, symName: __ZN5gimli4read4line15FileEntryFormat5parse17hcf9d6022172f9fcfE, symObjAddr: 0x3A140, symBinAddr: 0x28C28, symSize: 0x350 }
  - { offset: 0xBAEE9, size: 0x8, addend: 0x0, symName: __ZN5gimli4read4line15parse_attribute17h973ae6180450771dE, symObjAddr: 0x3A490, symBinAddr: 0x28F78, symSize: 0x874 }
  - { offset: 0xBC481, size: 0x8, addend: 0x0, symName: __ZN5gimli4read4line18parse_directory_v517h25176f2ce75ce1baE, symObjAddr: 0x3AD04, symBinAddr: 0x297EC, symSize: 0xE4 }
  - { offset: 0xBC554, size: 0x8, addend: 0x0, symName: '__ZN85_$LT$gimli..read..line..FileEntry$LT$R$C$Offset$GT$$u20$as$u20$core..clone..Clone$GT$5clone17h44768d28f42098d8E', symObjAddr: 0x4A8D4, symBinAddr: 0x30F48, symSize: 0x1D4 }
  - { offset: 0xBC762, size: 0x8, addend: 0x0, symName: _OUTLINED_FUNCTION_0, symObjAddr: 0x4EDFC, symBinAddr: 0x34488, symSize: 0xC }
  - { offset: 0xBC77A, size: 0x8, addend: 0x0, symName: _OUTLINED_FUNCTION_1, symObjAddr: 0x4EE08, symBinAddr: 0x34494, symSize: 0x8 }
  - { offset: 0xBC792, size: 0x8, addend: 0x0, symName: _OUTLINED_FUNCTION_2, symObjAddr: 0x4EE10, symBinAddr: 0x3449C, symSize: 0xC }
  - { offset: 0xBC7AA, size: 0x8, addend: 0x0, symName: _OUTLINED_FUNCTION_3, symObjAddr: 0x4EE1C, symBinAddr: 0x344A8, symSize: 0xC }
  - { offset: 0xBC7C2, size: 0x8, addend: 0x0, symName: _OUTLINED_FUNCTION_4, symObjAddr: 0x4EE28, symBinAddr: 0x344B4, symSize: 0x10 }
  - { offset: 0xBC7DA, size: 0x8, addend: 0x0, symName: _OUTLINED_FUNCTION_5, symObjAddr: 0x4EE38, symBinAddr: 0x344C4, symSize: 0x10 }
  - { offset: 0xBC7F2, size: 0x8, addend: 0x0, symName: _OUTLINED_FUNCTION_6, symObjAddr: 0x4EE48, symBinAddr: 0x344D4, symSize: 0xC }
  - { offset: 0xBC80A, size: 0x8, addend: 0x0, symName: _OUTLINED_FUNCTION_7, symObjAddr: 0x4EE54, symBinAddr: 0x344E0, symSize: 0xC }
  - { offset: 0xBC822, size: 0x8, addend: 0x0, symName: _OUTLINED_FUNCTION_8, symObjAddr: 0x4EE60, symBinAddr: 0x344EC, symSize: 0xC }
  - { offset: 0xBC83A, size: 0x8, addend: 0x0, symName: _OUTLINED_FUNCTION_9, symObjAddr: 0x4EE6C, symBinAddr: 0x344F8, symSize: 0xC }
  - { offset: 0xBC852, size: 0x8, addend: 0x0, symName: _OUTLINED_FUNCTION_10, symObjAddr: 0x4EE78, symBinAddr: 0x34504, symSize: 0x8 }
  - { offset: 0xBC86A, size: 0x8, addend: 0x0, symName: _OUTLINED_FUNCTION_11, symObjAddr: 0x4EE80, symBinAddr: 0x3450C, symSize: 0x8 }
  - { offset: 0xBC882, size: 0x8, addend: 0x0, symName: _OUTLINED_FUNCTION_12, symObjAddr: 0x4EE88, symBinAddr: 0x34514, symSize: 0x24 }
  - { offset: 0xBC89A, size: 0x8, addend: 0x0, symName: _OUTLINED_FUNCTION_13, symObjAddr: 0x4EEAC, symBinAddr: 0x34538, symSize: 0x8 }
  - { offset: 0xBC8B2, size: 0x8, addend: 0x0, symName: _OUTLINED_FUNCTION_14, symObjAddr: 0x4EEB4, symBinAddr: 0x34540, symSize: 0x14 }
  - { offset: 0xBC8CA, size: 0x8, addend: 0x0, symName: _OUTLINED_FUNCTION_15, symObjAddr: 0x4EEC8, symBinAddr: 0x34554, symSize: 0xC }
  - { offset: 0xBC8E2, size: 0x8, addend: 0x0, symName: _OUTLINED_FUNCTION_16, symObjAddr: 0x4EED4, symBinAddr: 0x34560, symSize: 0x10 }
  - { offset: 0xBC8FA, size: 0x8, addend: 0x0, symName: _OUTLINED_FUNCTION_17, symObjAddr: 0x4EEE4, symBinAddr: 0x34570, symSize: 0x10 }
  - { offset: 0xBC912, size: 0x8, addend: 0x0, symName: _OUTLINED_FUNCTION_18, symObjAddr: 0x4EEF4, symBinAddr: 0x34580, symSize: 0x8 }
  - { offset: 0xBC92A, size: 0x8, addend: 0x0, symName: _OUTLINED_FUNCTION_19, symObjAddr: 0x4EEFC, symBinAddr: 0x34588, symSize: 0x8 }
  - { offset: 0xBC942, size: 0x8, addend: 0x0, symName: _OUTLINED_FUNCTION_20, symObjAddr: 0x4EF04, symBinAddr: 0x34590, symSize: 0x8 }
  - { offset: 0xBC95A, size: 0x8, addend: 0x0, symName: _OUTLINED_FUNCTION_21, symObjAddr: 0x4EF0C, symBinAddr: 0x34598, symSize: 0x18 }
  - { offset: 0xBC972, size: 0x8, addend: 0x0, symName: _OUTLINED_FUNCTION_22, symObjAddr: 0x4EF24, symBinAddr: 0x345B0, symSize: 0x18 }
  - { offset: 0xBC98A, size: 0x8, addend: 0x0, symName: _OUTLINED_FUNCTION_23, symObjAddr: 0x4EF3C, symBinAddr: 0x345C8, symSize: 0x8 }
  - { offset: 0xBC9A2, size: 0x8, addend: 0x0, symName: _OUTLINED_FUNCTION_25, symObjAddr: 0x4EF50, symBinAddr: 0x345D0, symSize: 0xC }
  - { offset: 0xBC9BA, size: 0x8, addend: 0x0, symName: _OUTLINED_FUNCTION_26, symObjAddr: 0x4EF5C, symBinAddr: 0x345DC, symSize: 0x8 }
  - { offset: 0xBC9D2, size: 0x8, addend: 0x0, symName: _OUTLINED_FUNCTION_27, symObjAddr: 0x4EF64, symBinAddr: 0x345E4, symSize: 0xC }
  - { offset: 0xBC9EA, size: 0x8, addend: 0x0, symName: _OUTLINED_FUNCTION_28, symObjAddr: 0x4EF70, symBinAddr: 0x345F0, symSize: 0x8 }
  - { offset: 0xBCA02, size: 0x8, addend: 0x0, symName: _OUTLINED_FUNCTION_29, symObjAddr: 0x4EF78, symBinAddr: 0x345F8, symSize: 0xC }
  - { offset: 0xBCA1A, size: 0x8, addend: 0x0, symName: _OUTLINED_FUNCTION_30, symObjAddr: 0x4EF84, symBinAddr: 0x34604, symSize: 0x8 }
  - { offset: 0xBCA32, size: 0x8, addend: 0x0, symName: _OUTLINED_FUNCTION_31, symObjAddr: 0x4EF8C, symBinAddr: 0x3460C, symSize: 0xC }
  - { offset: 0xBCA4A, size: 0x8, addend: 0x0, symName: _OUTLINED_FUNCTION_32, symObjAddr: 0x4EF98, symBinAddr: 0x34618, symSize: 0x8 }
  - { offset: 0xBCA62, size: 0x8, addend: 0x0, symName: _OUTLINED_FUNCTION_33, symObjAddr: 0x4EFA0, symBinAddr: 0x34620, symSize: 0xC }
  - { offset: 0xBCA7A, size: 0x8, addend: 0x0, symName: _OUTLINED_FUNCTION_34, symObjAddr: 0x4EFAC, symBinAddr: 0x3462C, symSize: 0xC }
  - { offset: 0xBCA92, size: 0x8, addend: 0x0, symName: _OUTLINED_FUNCTION_35, symObjAddr: 0x4EFB8, symBinAddr: 0x34638, symSize: 0x10 }
  - { offset: 0xBCAAA, size: 0x8, addend: 0x0, symName: _OUTLINED_FUNCTION_36, symObjAddr: 0x4EFC8, symBinAddr: 0x34648, symSize: 0x14 }
  - { offset: 0xBCAC2, size: 0x8, addend: 0x0, symName: _OUTLINED_FUNCTION_37, symObjAddr: 0x4EFDC, symBinAddr: 0x3465C, symSize: 0x14 }
  - { offset: 0xBCADA, size: 0x8, addend: 0x0, symName: _OUTLINED_FUNCTION_38, symObjAddr: 0x4EFF0, symBinAddr: 0x34670, symSize: 0xC }
  - { offset: 0xBCAF2, size: 0x8, addend: 0x0, symName: _OUTLINED_FUNCTION_39, symObjAddr: 0x4EFFC, symBinAddr: 0x3467C, symSize: 0xC }
  - { offset: 0xBCB0A, size: 0x8, addend: 0x0, symName: _OUTLINED_FUNCTION_40, symObjAddr: 0x4F008, symBinAddr: 0x34688, symSize: 0xC }
  - { offset: 0xBCB22, size: 0x8, addend: 0x0, symName: _OUTLINED_FUNCTION_41, symObjAddr: 0x4F014, symBinAddr: 0x34694, symSize: 0x14 }
  - { offset: 0xBCB3A, size: 0x8, addend: 0x0, symName: _OUTLINED_FUNCTION_42, symObjAddr: 0x4F028, symBinAddr: 0x346A8, symSize: 0xC }
  - { offset: 0xBCB52, size: 0x8, addend: 0x0, symName: _OUTLINED_FUNCTION_43, symObjAddr: 0x4F034, symBinAddr: 0x346B4, symSize: 0x14 }
  - { offset: 0xBCB6A, size: 0x8, addend: 0x0, symName: _OUTLINED_FUNCTION_44, symObjAddr: 0x4F048, symBinAddr: 0x346C8, symSize: 0x14 }
  - { offset: 0xBCB82, size: 0x8, addend: 0x0, symName: _OUTLINED_FUNCTION_45, symObjAddr: 0x4F05C, symBinAddr: 0x346DC, symSize: 0xC }
  - { offset: 0xBCBB7, size: 0x8, addend: 0x0, symName: __RNvCs5QKde7ScR4H_7___rustc18___rust_start_panic, symObjAddr: 0x0, symBinAddr: 0x346E8, symSize: 0xA0 }
  - { offset: 0xBCCED, size: 0x8, addend: 0x0, symName: __ZN12panic_unwind3imp5panic17exception_cleanup17h422a4f5df43e6584E, symObjAddr: 0x108, symBinAddr: 0x347F0, symSize: 0x18 }
  - { offset: 0xBCD08, size: 0x8, addend: 0x0, symName: __RNvCs5QKde7ScR4H_7___rustc18___rust_start_panic, symObjAddr: 0x0, symBinAddr: 0x346E8, symSize: 0xA0 }
  - { offset: 0xBCDA8, size: 0x8, addend: 0x0, symName: __RNvCs5QKde7ScR4H_7___rustc20___rust_panic_cleanup, symObjAddr: 0xA0, symBinAddr: 0x34788, symSize: 0x68 }
  - { offset: 0xBCEC3, size: 0x8, addend: 0x0, symName: '__ZN4core3ptr49drop_in_place$LT$panic_unwind..imp..Exception$GT$17h86c19963f3bb4ddfE', symObjAddr: 0x120, symBinAddr: 0x34808, symSize: 0x78 }
  - { offset: 0xBD01E, size: 0x8, addend: 0x0, symName: '__ZN4core3ptr74drop_in_place$LT$alloc..boxed..Box$LT$panic_unwind..imp..Exception$GT$$GT$17hd3523428b22dea99E', symObjAddr: 0x198, symBinAddr: 0x34880, symSize: 0x8C }
  - { offset: 0xBD39E, size: 0x8, addend: 0x0, symName: __ZN5alloc5alloc18handle_alloc_error17h3b40831c24d87d14E, symObjAddr: 0x2E34, symBinAddr: 0x46128, symSize: 0x18 }
  - { offset: 0xBD3F5, size: 0x8, addend: 0x0, symName: '__ZN254_$LT$alloc..boxed..convert..$LT$impl$u20$core..convert..From$LT$alloc..string..String$GT$$u20$for$u20$alloc..boxed..Box$LT$dyn$u20$core..error..Error$u2b$core..marker..Sync$u2b$core..marker..Send$GT$$GT$..from..StringError$u20$as$u20$core..fmt..Debug$GT$3fmt17hc446d6bac796637dE', symObjAddr: 0xA8, symBinAddr: 0x3C268, symSize: 0x10 }
  - { offset: 0xBD4C6, size: 0x8, addend: 0x0, symName: '__ZN256_$LT$alloc..boxed..convert..$LT$impl$u20$core..convert..From$LT$alloc..string..String$GT$$u20$for$u20$alloc..boxed..Box$LT$dyn$u20$core..error..Error$u2b$core..marker..Sync$u2b$core..marker..Send$GT$$GT$..from..StringError$u20$as$u20$core..fmt..Display$GT$3fmt17h90f9c27648ab0a85E', symObjAddr: 0xB8, symBinAddr: 0x3C278, symSize: 0x10 }
  - { offset: 0xBD5A4, size: 0x8, addend: 0x0, symName: __ZN5alloc3ffi5c_str7CString19_from_vec_unchecked17hd89d9cf25fc29871E, symObjAddr: 0x8D4, symBinAddr: 0x3C458, symSize: 0x118 }
  - { offset: 0xBD925, size: 0x8, addend: 0x0, symName: '__ZN72_$LT$$RF$str$u20$as$u20$alloc..ffi..c_str..CString..new..SpecNewImpl$GT$13spec_new_impl17h068225ac1de54212E', symObjAddr: 0x4C64, symBinAddr: 0x3CA38, symSize: 0x114 }
  - { offset: 0xBDBB7, size: 0x8, addend: 0x0, symName: '__ZN81_$LT$$RF$$u5b$u8$u5d$$u20$as$u20$alloc..ffi..c_str..CString..new..SpecNewImpl$GT$13spec_new_impl17h96039c7f2f5d861bE', symObjAddr: 0x518C, symBinAddr: 0x3CB4C, symSize: 0x114 }
  - { offset: 0xBDFBF, size: 0x8, addend: 0x0, symName: '__ZN5alloc7raw_vec20RawVecInner$LT$A$GT$11finish_grow17h1f24ed514a1bb79eE', symObjAddr: 0x47A4, symBinAddr: 0x46174, symSize: 0x8C }
  - { offset: 0xBE1C8, size: 0x8, addend: 0x0, symName: __ZN5alloc7raw_vec12handle_error17h97e8d61a4c5683faE, symObjAddr: 0x4710, symBinAddr: 0x46140, symSize: 0x14 }
  - { offset: 0xBE20E, size: 0x8, addend: 0x0, symName: __ZN5alloc7raw_vec17capacity_overflow17h4852277d44d1c1c9E, symObjAddr: 0x4724, symBinAddr: 0x46154, symSize: 0x20 }
  - { offset: 0xBE23F, size: 0x8, addend: 0x0, symName: '__ZN5alloc7raw_vec20RawVecInner$LT$A$GT$7reserve21do_reserve_and_handle17h90b3837adf483826E', symObjAddr: 0x4830, symBinAddr: 0x46200, symSize: 0x78 }
  - { offset: 0xBE542, size: 0x8, addend: 0x0, symName: __ZN5alloc6string6String15from_utf8_lossy17hde2382a5883ef92eE, symObjAddr: 0x3D68, symBinAddr: 0x3C798, symSize: 0x21C }
  - { offset: 0xBEACF, size: 0x8, addend: 0x0, symName: '__ZN58_$LT$alloc..string..String$u20$as$u20$core..fmt..Write$GT$10write_char17h9904efafb51f78b8E', symObjAddr: 0x1C4, symBinAddr: 0x3C2C8, symSize: 0x118 }
  - { offset: 0xBEC6E, size: 0x8, addend: 0x0, symName: '__ZN58_$LT$alloc..string..String$u20$as$u20$core..fmt..Write$GT$9write_str17h3ffaf0979099dce0E', symObjAddr: 0x2DC, symBinAddr: 0x3C3E0, symSize: 0x78 }
  - { offset: 0xBEDD3, size: 0x8, addend: 0x0, symName: '__ZN98_$LT$alloc..string..String$u20$as$u20$core..convert..From$LT$alloc..borrow..Cow$LT$str$GT$$GT$$GT$4from17h8575f17583162c5bE', symObjAddr: 0x58E4, symBinAddr: 0x3CC60, symSize: 0x94 }
  - { offset: 0xBEF14, size: 0x8, addend: 0x0, symName: '__ZN60_$LT$alloc..string..String$u20$as$u20$core..clone..Clone$GT$5clone17h65381f6df886e978E', symObjAddr: 0x4924, symBinAddr: 0x3C9B4, symSize: 0x70 }
  - { offset: 0xBF084, size: 0x8, addend: 0x0, symName: __ZN5alloc3fmt6format12format_inner17hfd66a10598e1d54bE, symObjAddr: 0xABC, symBinAddr: 0x3C570, symSize: 0x1B4 }
  - { offset: 0xBF379, size: 0x8, addend: 0x0, symName: __ZN5alloc4sync32arcinner_layout_for_value_layout17hcd6ab4ca88c09aebE, symObjAddr: 0x2014, symBinAddr: 0x3C724, symSize: 0x74 }
  - { offset: 0xBF50E, size: 0x8, addend: 0x0, symName: '__ZN4core3ptr42drop_in_place$LT$alloc..string..String$GT$17hb29ec7c9ad6ce287E', symObjAddr: 0x104, symBinAddr: 0x3C29C, symSize: 0x18 }
  - { offset: 0xBF6C0, size: 0x8, addend: 0x0, symName: __ZN4core3fmt5Write9write_fmt17h5b4f4a91d7d72e0fE, symObjAddr: 0xD8, symBinAddr: 0x3C288, symSize: 0x14 }
  - { offset: 0xBF701, size: 0x8, addend: 0x0, symName: '__ZN53_$LT$core..fmt..Error$u20$as$u20$core..fmt..Debug$GT$3fmt17hae3bab0f290aff5aE', symObjAddr: 0x14C, symBinAddr: 0x3C2B4, symSize: 0x14 }
  - { offset: 0xBF88D, size: 0x8, addend: 0x0, symName: '__ZN69_$LT$core..alloc..layout..LayoutError$u20$as$u20$core..fmt..Debug$GT$3fmt17h51ac2ee096977db1E', symObjAddr: 0x4C50, symBinAddr: 0x3CA24, symSize: 0x14 }
  - { offset: 0xBF931, size: 0x8, addend: 0x0, symName: '__ZN71_$LT$core..ops..range..Range$LT$Idx$GT$$u20$as$u20$core..fmt..Debug$GT$3fmt17h11f4633ee40cde50E', symObjAddr: 0x1B7F8, symBinAddr: 0x4174C, symSize: 0x5C }
  - { offset: 0xBFB59, size: 0x8, addend: 0x0, symName: '__ZN4core4char7methods22_$LT$impl$u20$char$GT$16escape_debug_ext17h3246e5c7618a6259E', symObjAddr: 0x14964, symBinAddr: 0x40C60, symSize: 0x284 }
  - { offset: 0xC0127, size: 0x8, addend: 0x0, symName: __ZN4core6option13expect_failed17h5631e2cc858bf370E, symObjAddr: 0x150D8, symBinAddr: 0x46388, symSize: 0x30 }
  - { offset: 0xC0157, size: 0x8, addend: 0x0, symName: __ZN4core6option13unwrap_failed17h166c889ad3161268E, symObjAddr: 0x15108, symBinAddr: 0x463B8, symSize: 0x1C }
  - { offset: 0xC055D, size: 0x8, addend: 0x0, symName: __ZN4core5slice5index16slice_index_fail17h5480dafd3d82e600E, symObjAddr: 0x14E28, symBinAddr: 0x462D4, symSize: 0xB4 }
  - { offset: 0xC0630, size: 0x8, addend: 0x0, symName: __ZN4core5slice6memchr14memchr_aligned17h658be0064b80f016E, symObjAddr: 0x14EDC, symBinAddr: 0x40F10, symSize: 0xDC }
  - { offset: 0xC0647, size: 0x8, addend: 0x0, symName: __ZN4core5slice6memchr14memchr_aligned17h658be0064b80f016E, symObjAddr: 0x14EDC, symBinAddr: 0x40F10, symSize: 0xDC }
  - { offset: 0xC065C, size: 0x8, addend: 0x0, symName: __ZN4core5slice6memchr14memchr_aligned17h658be0064b80f016E, symObjAddr: 0x14EDC, symBinAddr: 0x40F10, symSize: 0xDC }
  - { offset: 0xC0670, size: 0x8, addend: 0x0, symName: __ZN4core5slice6memchr14memchr_aligned17h658be0064b80f016E, symObjAddr: 0x14EDC, symBinAddr: 0x40F10, symSize: 0xDC }
  - { offset: 0xC0685, size: 0x8, addend: 0x0, symName: __ZN4core5slice6memchr14memchr_aligned17h658be0064b80f016E, symObjAddr: 0x14EDC, symBinAddr: 0x40F10, symSize: 0xDC }
  - { offset: 0xC0778, size: 0x8, addend: 0x0, symName: __ZN4core5slice4sort6shared9smallsort22panic_on_ord_violation17h67b8176213e711b6E, symObjAddr: 0x14D2C, symBinAddr: 0x462B4, symSize: 0x20 }
  - { offset: 0xC079F, size: 0x8, addend: 0x0, symName: __ZN4core5slice4sort6stable5drift11sqrt_approx17hb90d12192a85e22dE, symObjAddr: 0x14D4C, symBinAddr: 0x40EE4, symSize: 0x2C }
  - { offset: 0xC088C, size: 0x8, addend: 0x0, symName: __ZN4core3fmt9Formatter10debug_list17h99697597ed026270E, symObjAddr: 0x964C, symBinAddr: 0x3E808, symSize: 0x48 }
  - { offset: 0xC08CB, size: 0x8, addend: 0x0, symName: __ZN4core3fmt9Formatter11debug_tuple17hdd7c82e0f49ab5eaE, symObjAddr: 0x9694, symBinAddr: 0x3E850, symSize: 0x50 }
  - { offset: 0xC0917, size: 0x8, addend: 0x0, symName: __ZN4core3fmt9Formatter12debug_struct17h0a35edc54b908e18E, symObjAddr: 0x96E4, symBinAddr: 0x3E8A0, symSize: 0x3C }
  - { offset: 0xC097C, size: 0x8, addend: 0x0, symName: __ZN4core3fmt9Formatter12pad_integral17h53df9aeab2bf6d7eE, symObjAddr: 0x979C, symBinAddr: 0x3E958, symSize: 0x3B4 }
  - { offset: 0xC0CCD, size: 0x8, addend: 0x0, symName: __ZN4core3fmt9Formatter25debug_tuple_field1_finish17hfe3074b00f708274E, symObjAddr: 0xA008, symBinAddr: 0x3ED0C, symSize: 0x160 }
  - { offset: 0xC0EC7, size: 0x8, addend: 0x0, symName: __ZN4core3fmt9Formatter25debug_tuple_field2_finish17h4dc277e3104fd06eE, symObjAddr: 0xA168, symBinAddr: 0x3EE6C, symSize: 0x1D8 }
  - { offset: 0xC11BE, size: 0x8, addend: 0x0, symName: __ZN4core3fmt9Formatter26debug_struct_field1_finish17h5faa61f6e05c87e5E, symObjAddr: 0xAF20, symBinAddr: 0x3F044, symSize: 0xD0 }
  - { offset: 0xC128D, size: 0x8, addend: 0x0, symName: __ZN4core3fmt9Formatter26debug_struct_field2_finish17h13edb47884af88cbE, symObjAddr: 0xAFF0, symBinAddr: 0x3F114, symSize: 0x104 }
  - { offset: 0xC1363, size: 0x8, addend: 0x0, symName: __ZN4core3fmt9Formatter3pad17h83cad1b52a97ef58E, symObjAddr: 0xB604, symBinAddr: 0x3F218, symSize: 0x30C }
  - { offset: 0xC16BF, size: 0x8, addend: 0x0, symName: __ZN4core3fmt9Formatter9write_str17hbcdf83527753b9bcE, symObjAddr: 0xB9BC, symBinAddr: 0x3F524, symSize: 0x10 }
  - { offset: 0xC172A, size: 0x8, addend: 0x0, symName: __ZN4core3fmt8builders11DebugStruct21finish_non_exhaustive17h9fb7dd5cc7a739dfE, symObjAddr: 0x8AF4, symBinAddr: 0x3E380, symSize: 0xC4 }
  - { offset: 0xC1851, size: 0x8, addend: 0x0, symName: __ZN4core3fmt8builders11DebugStruct5field17ha008bc786cd9a2fdE, symObjAddr: 0x8BB8, symBinAddr: 0x3E444, symSize: 0x1B4 }
  - { offset: 0xC1A5B, size: 0x8, addend: 0x0, symName: __ZN4core3fmt8builders11DebugStruct6finish17h93a36d829051f804E, symObjAddr: 0x8D6C, symBinAddr: 0x3E5F8, symSize: 0x7C }
  - { offset: 0xC1B8C, size: 0x8, addend: 0x0, symName: __ZN4core3fmt8builders10DebugTuple5field17h37c648eaf108365eE, symObjAddr: 0x88D4, symBinAddr: 0x3E184, symSize: 0x148 }
  - { offset: 0xC1D09, size: 0x8, addend: 0x0, symName: __ZN4core3fmt8builders10DebugTuple6finish17h8aef907a98092ddfE, symObjAddr: 0x8A1C, symBinAddr: 0x3E2CC, symSize: 0xB4 }
  - { offset: 0xC1E47, size: 0x8, addend: 0x0, symName: __ZN4core3fmt8builders8DebugSet5entry17h3629c8d83309d6d7E, symObjAddr: 0x93A4, symBinAddr: 0x3E674, symSize: 0x148 }
  - { offset: 0xC2023, size: 0x8, addend: 0x0, symName: __ZN4core3fmt8builders9DebugList6finish17hed8c8fff9412d267E, symObjAddr: 0x9600, symBinAddr: 0x3E7BC, symSize: 0x4C }
  - { offset: 0xC209D, size: 0x8, addend: 0x0, symName: '__ZN68_$LT$core..fmt..builders..PadAdapter$u20$as$u20$core..fmt..Write$GT$10write_char17h1f40c6c36619927aE', symObjAddr: 0x1A5B4, symBinAddr: 0x414A4, symSize: 0x80 }
  - { offset: 0xC20C5, size: 0x8, addend: 0x0, symName: '__ZN68_$LT$core..fmt..builders..PadAdapter$u20$as$u20$core..fmt..Write$GT$9write_str17h739b9e2e5dbbd303E', symObjAddr: 0x1A634, symBinAddr: 0x41524, symSize: 0x228 }
  - { offset: 0xC233F, size: 0x8, addend: 0x0, symName: '__ZN57_$LT$core..fmt..Formatter$u20$as$u20$core..fmt..Write$GT$10write_char17h984cbaf3daf0c8adE', symObjAddr: 0x16E34, symBinAddr: 0x41470, symSize: 0x10 }
  - { offset: 0xC2378, size: 0x8, addend: 0x0, symName: '__ZN40_$LT$str$u20$as$u20$core..fmt..Debug$GT$3fmt17hd2d82a5aea2511e8E', symObjAddr: 0x2F4, symBinAddr: 0x3CCF4, symSize: 0x38C }
  - { offset: 0xC2827, size: 0x8, addend: 0x0, symName: '__ZN41_$LT$char$u20$as$u20$core..fmt..Debug$GT$3fmt17h71c213358e065a2cE', symObjAddr: 0x680, symBinAddr: 0x3D080, symSize: 0xA8 }
  - { offset: 0xC2A18, size: 0x8, addend: 0x0, symName: '__ZN4core3fmt3num3imp21_$LT$impl$u20$u32$GT$10_fmt_inner17h5b2b8fa1eacc0bcfE', symObjAddr: 0x1D60, symBinAddr: 0x3D54C, symSize: 0x1F0 }
  - { offset: 0xC2AD2, size: 0x8, addend: 0x0, symName: '__ZN4core3fmt3num3imp21_$LT$impl$u20$u64$GT$10_fmt_inner17hdc2ac0c47b5e6b6dE', symObjAddr: 0x1FAC, symBinAddr: 0x3D73C, symSize: 0x1F8 }
  - { offset: 0xC2B8B, size: 0x8, addend: 0x0, symName: '__ZN4core3fmt3num3imp51_$LT$impl$u20$core..fmt..Display$u20$for$u20$u8$GT$3fmt17h2aac956623a4145cE', symObjAddr: 0x22D0, symBinAddr: 0x3D934, symSize: 0xB0 }
  - { offset: 0xC2C6F, size: 0x8, addend: 0x0, symName: '__ZN4core3fmt3num3imp52_$LT$impl$u20$core..fmt..Display$u20$for$u20$i32$GT$3fmt17h3e718042e4081c2fE', symObjAddr: 0x24A0, symBinAddr: 0x3D9E4, symSize: 0x6C }
  - { offset: 0xC2D18, size: 0x8, addend: 0x0, symName: '__ZN4core3fmt3num3imp52_$LT$impl$u20$core..fmt..Display$u20$for$u20$u32$GT$3fmt17h00f747df55cb6d6eE', symObjAddr: 0x2680, symBinAddr: 0x3DA50, symSize: 0x60 }
  - { offset: 0xC2DBF, size: 0x8, addend: 0x0, symName: '__ZN4core3fmt3num3imp52_$LT$impl$u20$core..fmt..Display$u20$for$u20$u64$GT$3fmt17h085de41122354ce6E', symObjAddr: 0x26E0, symBinAddr: 0x3DAB0, symSize: 0x60 }
  - { offset: 0xC2E74, size: 0x8, addend: 0x0, symName: '__ZN4core3fmt3num52_$LT$impl$u20$core..fmt..LowerHex$u20$for$u20$u8$GT$3fmt17had034a1db393ea33E', symObjAddr: 0x4528, symBinAddr: 0x3DD04, symSize: 0x74 }
  - { offset: 0xC2EE4, size: 0x8, addend: 0x0, symName: '__ZN4core3fmt3num52_$LT$impl$u20$core..fmt..UpperHex$u20$for$u20$u8$GT$3fmt17h4329988f9618996cE', symObjAddr: 0x4610, symBinAddr: 0x3DD78, symSize: 0x74 }
  - { offset: 0xC2F67, size: 0x8, addend: 0x0, symName: '__ZN4core3fmt3num53_$LT$impl$u20$core..fmt..LowerHex$u20$for$u20$i32$GT$3fmt17h669f6375ba8b2a89E', symObjAddr: 0x47D0, symBinAddr: 0x3DDEC, symSize: 0x74 }
  - { offset: 0xC2FFF, size: 0x8, addend: 0x0, symName: '__ZN4core3fmt3num53_$LT$impl$u20$core..fmt..UpperHex$u20$for$u20$i32$GT$3fmt17hcaa5ebb05661f33fE', symObjAddr: 0x4A88, symBinAddr: 0x3DED4, symSize: 0x74 }
  - { offset: 0xC3084, size: 0x8, addend: 0x0, symName: '__ZN4core3fmt3num53_$LT$impl$u20$core..fmt..LowerHex$u20$for$u20$u64$GT$3fmt17h7e60cb090217ac48E', symObjAddr: 0x49A0, symBinAddr: 0x3DE60, symSize: 0x74 }
  - { offset: 0xC30F4, size: 0x8, addend: 0x0, symName: '__ZN4core3fmt3num53_$LT$impl$u20$core..fmt..UpperHex$u20$for$u20$u64$GT$3fmt17ha5992a64247d5125E', symObjAddr: 0x4C58, symBinAddr: 0x3DF48, symSize: 0x74 }
  - { offset: 0xC3158, size: 0x8, addend: 0x0, symName: '__ZN4core3fmt3num50_$LT$impl$u20$core..fmt..Debug$u20$for$u20$u64$GT$3fmt17h0e0cd6ae854f552bE', symObjAddr: 0x3918, symBinAddr: 0x3DB10, symSize: 0xF4 }
  - { offset: 0xC3287, size: 0x8, addend: 0x0, symName: '__ZN4core3fmt3num52_$LT$impl$u20$core..fmt..Debug$u20$for$u20$usize$GT$3fmt17hddf28bd83d4a73e6E', symObjAddr: 0x43B4, symBinAddr: 0x3DC04, symSize: 0x100 }
  - { offset: 0xC33A4, size: 0x8, addend: 0x0, symName: '__ZN42_$LT$$RF$T$u20$as$u20$core..fmt..Debug$GT$3fmt17h2b4b3f22ce4bee49E', symObjAddr: 0x7E4, symBinAddr: 0x3D128, symSize: 0x8 }
  - { offset: 0xC33B8, size: 0x8, addend: 0x0, symName: '__ZN42_$LT$$RF$T$u20$as$u20$core..fmt..Debug$GT$3fmt17h567a63fd3c782be8E', symObjAddr: 0x7FC, symBinAddr: 0x3D130, symSize: 0xC }
  - { offset: 0xC33DF, size: 0x8, addend: 0x0, symName: '__ZN42_$LT$$RF$T$u20$as$u20$core..fmt..Debug$GT$3fmt17h9c2ce363ea8dcdd6E', symObjAddr: 0x808, symBinAddr: 0x3D13C, symSize: 0x164 }
  - { offset: 0xC3604, size: 0x8, addend: 0x0, symName: '__ZN42_$LT$$RF$T$u20$as$u20$core..fmt..Debug$GT$3fmt17ha3a50d16762be34eE', symObjAddr: 0x97C, symBinAddr: 0x3D2A0, symSize: 0x10 }
  - { offset: 0xC362B, size: 0x8, addend: 0x0, symName: '__ZN42_$LT$str$u20$as$u20$core..fmt..Display$GT$3fmt17hf7b0640df494d19dE', symObjAddr: 0x994, symBinAddr: 0x3D2B0, symSize: 0x14 }
  - { offset: 0xC3651, size: 0x8, addend: 0x0, symName: '__ZN43_$LT$char$u20$as$u20$core..fmt..Display$GT$3fmt17h69f073e2ae59c68fE', symObjAddr: 0x9DC, symBinAddr: 0x3D2C4, symSize: 0xD4 }
  - { offset: 0xC36C6, size: 0x8, addend: 0x0, symName: '__ZN44_$LT$$RF$T$u20$as$u20$core..fmt..Display$GT$3fmt17hbdfe33b02e140eaaE', symObjAddr: 0xAC0, symBinAddr: 0x3D398, symSize: 0x10 }
  - { offset: 0xC36F7, size: 0x8, addend: 0x0, symName: __ZN4core3fmt17pointer_fmt_inner17h876b3aac0450430cE, symObjAddr: 0xF8C, symBinAddr: 0x3D498, symSize: 0xB4 }
  - { offset: 0xC37C7, size: 0x8, addend: 0x0, symName: __ZN4core3fmt5Write9write_fmt17h1e83184835b6b465E, symObjAddr: 0x5D18, symBinAddr: 0x3DFBC, symSize: 0x14 }
  - { offset: 0xC3854, size: 0x8, addend: 0x0, symName: __ZN4core3fmt5write17h8a52dffc4df6d016E, symObjAddr: 0x8660, symBinAddr: 0x3DFD0, symSize: 0x1B4 }
  - { offset: 0xC3AD2, size: 0x8, addend: 0x0, symName: __ZN4core3fmt9Formatter12pad_integral12write_prefix17h8540e58600a8d620E, symObjAddr: 0x9720, symBinAddr: 0x3E8DC, symSize: 0x7C }
  - { offset: 0xC3B2A, size: 0x8, addend: 0x0, symName: '__ZN59_$LT$core..fmt..Arguments$u20$as$u20$core..fmt..Display$GT$3fmt17hb7b02a08a820e227E', symObjAddr: 0x17A5C, symBinAddr: 0x41480, symSize: 0x10 }
  - { offset: 0xC3C7B, size: 0x8, addend: 0x0, symName: __ZN4core6result13unwrap_failed17h74e6dfc470337e8fE, symObjAddr: 0x15124, symBinAddr: 0x463D4, symSize: 0x48 }
  - { offset: 0xC3E6E, size: 0x8, addend: 0x0, symName: __ZN4core3str5count14do_count_chars17hfa41c3400f716407E, symObjAddr: 0x13188, symBinAddr: 0x3F794, symSize: 0x718 }
  - { offset: 0xC426A, size: 0x8, addend: 0x0, symName: __ZN4core3str5count23char_count_general_case17h98131c11f985a4b2E, symObjAddr: 0x138A0, symBinAddr: 0x3FEAC, symSize: 0x2A8 }
  - { offset: 0xC4312, size: 0x8, addend: 0x0, symName: __ZN4core3str16slice_error_fail17hfa6331de2d59316eE, symObjAddr: 0x12DD4, symBinAddr: 0x46278, symSize: 0xC }
  - { offset: 0xC432B, size: 0x8, addend: 0x0, symName: __ZN4core3str19slice_error_fail_rt17he10fa847ff1d6dbcE, symObjAddr: 0x12DFC, symBinAddr: 0x3F534, symSize: 0x260 }
  - { offset: 0xC4466, size: 0x8, addend: 0x0, symName: __ZN4core3str7pattern11StrSearcher3new17h0e1f6acdaf8da818E, symObjAddr: 0x13B64, symBinAddr: 0x40154, symSize: 0x898 }
  - { offset: 0xC4724, size: 0x8, addend: 0x0, symName: __ZN4core3str8converts9from_utf817he9f0822f56a5cc24E, symObjAddr: 0x14670, symBinAddr: 0x409EC, symSize: 0x274 }
  - { offset: 0xC4741, size: 0x8, addend: 0x0, symName: __ZN4core3str8converts9from_utf817he9f0822f56a5cc24E, symObjAddr: 0x14670, symBinAddr: 0x409EC, symSize: 0x274 }
  - { offset: 0xC47C1, size: 0x8, addend: 0x0, symName: '__ZN87_$LT$core..str..lossy..Utf8Chunks$u20$as$u20$core..iter..traits..iterator..Iterator$GT$4next17ha0fc4a5921d75e86E', symObjAddr: 0x1D7A8, symBinAddr: 0x417A8, symSize: 0x1C0 }
  - { offset: 0xC49D6, size: 0x8, addend: 0x0, symName: __ZN4core3ffi5c_str4CStr19from_bytes_with_nul17hf744986151965e8bE, symObjAddr: 0xDAC, symBinAddr: 0x3D3A8, symSize: 0xF0 }
  - { offset: 0xC49F4, size: 0x8, addend: 0x0, symName: __ZN4core3ffi5c_str4CStr19from_bytes_with_nul17hf744986151965e8bE, symObjAddr: 0xDAC, symBinAddr: 0x3D3A8, symSize: 0xF0 }
  - { offset: 0xC4B40, size: 0x8, addend: 0x0, symName: __ZN4core4cell22panic_already_borrowed17h82450002fb0f6e12E, symObjAddr: 0x148E4, symBinAddr: 0x46284, symSize: 0x30 }
  - { offset: 0xC4B8B, size: 0x8, addend: 0x0, symName: '__ZN65_$LT$core..cell..BorrowMutError$u20$as$u20$core..fmt..Display$GT$3fmt17h7a70aa4f106ac567E', symObjAddr: 0x19194, symBinAddr: 0x41490, symSize: 0x14 }
  - { offset: 0xC4BDA, size: 0x8, addend: 0x0, symName: __ZN4core7unicode12unicode_data15grapheme_extend11lookup_slow17hc505314b145fddb7E, symObjAddr: 0x15660, symBinAddr: 0x40FEC, symSize: 0x108 }
  - { offset: 0xC4DA5, size: 0x8, addend: 0x0, symName: __ZN4core7unicode9printable12is_printable17hf49ebfc81508a009E, symObjAddr: 0x15B7C, symBinAddr: 0x410F4, symSize: 0x37C }
  - { offset: 0xC50B7, size: 0x8, addend: 0x0, symName: __ZN4core9panicking11panic_const23panic_const_div_by_zero17h78967d181699e063E, symObjAddr: 0x15EF8, symBinAddr: 0x4641C, symSize: 0x1C }
  - { offset: 0xC50D1, size: 0x8, addend: 0x0, symName: __ZN4core9panicking11panic_const23panic_const_rem_by_zero17h0a5afac2d947308bE, symObjAddr: 0x15F30, symBinAddr: 0x46438, symSize: 0x1C }
  - { offset: 0xC50EB, size: 0x8, addend: 0x0, symName: __ZN4core9panicking11panic_const24panic_const_add_overflow17h9a54dd2018fe28a5E, symObjAddr: 0x15F4C, symBinAddr: 0x46454, symSize: 0x1C }
  - { offset: 0xC5105, size: 0x8, addend: 0x0, symName: __ZN4core9panicking11panic_const24panic_const_sub_overflow17h4881deae0c1d7cedE, symObjAddr: 0x16010, symBinAddr: 0x46470, symSize: 0x1C }
  - { offset: 0xC5120, size: 0x8, addend: 0x0, symName: __ZN4core9panicking13assert_failed17h03d286eacffdb44eE, symObjAddr: 0x16160, symBinAddr: 0x4648C, symSize: 0x28 }
  - { offset: 0xC513B, size: 0x8, addend: 0x0, symName: __ZN4core9panicking13assert_failed17h2e8acd2f0cd32091E, symObjAddr: 0x16188, symBinAddr: 0x464B4, symSize: 0x28 }
  - { offset: 0xC5156, size: 0x8, addend: 0x0, symName: __ZN4core9panicking13assert_failed17hc6912d5c8ae31599E, symObjAddr: 0x161B0, symBinAddr: 0x464DC, symSize: 0x28 }
  - { offset: 0xC5170, size: 0x8, addend: 0x0, symName: __ZN4core9panicking14panic_nounwind17h08cd4682ec06fdd2E, symObjAddr: 0x161D8, symBinAddr: 0x46504, symSize: 0x20 }
  - { offset: 0xC519E, size: 0x8, addend: 0x0, symName: __ZN4core9panicking16panic_in_cleanup17h62fee25f13dd543aE, symObjAddr: 0x16234, symBinAddr: 0x46524, symSize: 0x18 }
  - { offset: 0xC51B8, size: 0x8, addend: 0x0, symName: __ZN4core9panicking18panic_bounds_check17h4d34bdab34d851beE, symObjAddr: 0x1624C, symBinAddr: 0x4653C, symSize: 0x38 }
  - { offset: 0xC51E6, size: 0x8, addend: 0x0, symName: __ZN4core9panicking18panic_nounwind_fmt17h8c81167db7c868a6E, symObjAddr: 0x16284, symBinAddr: 0x46574, symSize: 0x30 }
  - { offset: 0xC522A, size: 0x8, addend: 0x0, symName: __ZN4core9panicking19assert_failed_inner17hd9d71f5fdbb02a84E, symObjAddr: 0x162B4, symBinAddr: 0x465A4, symSize: 0xBC }
  - { offset: 0xC5244, size: 0x8, addend: 0x0, symName: __ZN4core9panicking19panic_cannot_unwind17he03186bb60af78b0E, symObjAddr: 0x16370, symBinAddr: 0x46660, symSize: 0x18 }
  - { offset: 0xC525E, size: 0x8, addend: 0x0, symName: __ZN4core9panicking26panic_nounwind_nobacktrace17hdc754f5f6a967dc0E, symObjAddr: 0x16388, symBinAddr: 0x46678, symSize: 0x20 }
  - { offset: 0xC528C, size: 0x8, addend: 0x0, symName: __ZN4core9panicking30panic_null_pointer_dereference17h8e4ef9d2b35570f1E, symObjAddr: 0x163A8, symBinAddr: 0x46698, symSize: 0x1C }
  - { offset: 0xC52A6, size: 0x8, addend: 0x0, symName: __ZN4core9panicking36panic_misaligned_pointer_dereference17h8117d42e3ed7c531E, symObjAddr: 0x163F8, symBinAddr: 0x466B4, symSize: 0x3C }
  - { offset: 0xC52C0, size: 0x8, addend: 0x0, symName: __ZN4core9panicking5panic17hed7fda4ddae1f714E, symObjAddr: 0x16434, symBinAddr: 0x466F0, symSize: 0x14 }
  - { offset: 0xC52EE, size: 0x8, addend: 0x0, symName: __ZN4core9panicking9panic_fmt17hc9b4228954207328E, symObjAddr: 0x16448, symBinAddr: 0x46704, symSize: 0x28 }
  - { offset: 0xC535C, size: 0x8, addend: 0x0, symName: _OUTLINED_FUNCTION_0, symObjAddr: 0x1D9CC, symBinAddr: 0x41968, symSize: 0x10 }
  - { offset: 0xC5374, size: 0x8, addend: 0x0, symName: _OUTLINED_FUNCTION_1, symObjAddr: 0x1D9DC, symBinAddr: 0x41978, symSize: 0x8 }
...
